(dp0
S'todays'
p1
I1
sS'NYT'
p2
I1
sS'railing'
p3
I1
sS'trueinfo'
p4
I1
sS'Watch'
p5
I2
sS'copynbsp2016nbspCablenbspNewsnbspNetwork'
p6
I1
sS'voted'
p7
I1
sS'tagNamereturn'
p8
I1
sS'sorry'
p9
I1
sS'CNNcontentModelanalyticscaptopicssplitsCNNgetCapTopics'
p10
I1
sS'risk'
p11
I1
sS'USRussia'
p12
I1
sS'rise'
p13
I1
sS'trueenableAmazonVideoAds'
p14
I1
sS'jockeyslayouturi20161122artsarcaidimagesphotographyawardindexhtmlheadlineBest'
p15
I1
sS'slotCounttryCountsetAdSlotsif'
p16
I1
sS'NowdescriptionYou'
p17
I1
sS'alpine'
p18
I1
sS'school'
p19
I2
sS'wooden'
p20
I1
sS'dsVal'
p21
I1
sS'namelocatorbe47ea9695b453467348bundlejssize2127chunks10chunkNameslocatoremittedtruenameanimations8570286abaac7b359730bundlejssize8077chunks0chunkNamesanimationsemittedtruenamebreakoutmedia55acded57d333ec6d577bundlejssize1271chunks2chunkNamesbreakoutmediaemittedtruenamebyline5feb0fef867a74c9c4bebundlejssize1375chunks3chunkNamesbylineemittedtruenamecvploadera4680e5a22612322eb8cbundlejssize297913chunks4chunkNamescvploaderemittedtruenamefacebookf2f784f4ab0baa9ccf37bundlejssize1012chunks5chunkNamesfacebookemittedtruenamefinanciallibs6a53b5ac079a456e496dbundlejssize5631chunks6chunkNamesfinanciallibsemittedtruenamegridresize248a1464eb4dbcec8fcebundlejssize1460chunks7chunkNamesgridresizeemittedtruenamelistexpandable9e12463ab9150a2cc679bundlejssize741chunks8chunkNameslistexpandableemittedtruenameloadedb0e1182fc04114795c40bundlejssize218chunks9chunkNamesloadedemittedtruenamebootstrapperdfe754e722668df2e35ebundlejssize1893chunks1chunkNamesbootstrapperemittedtruenamemailchimp43bccb5ad56fc8134accbundlejssize5211chunks11chunkNamesmailchimpemittedtruenamemetadata044ab742596fd05a5c20bundlejssize663chunks12chunkNamesmetadataemittedtruenamemobileonetapb699506eb628037c6044bundlejssize7822chunks13chunkNamesmobileonetapemittedtruenamesubhub4c9af6e7594257c03f10bundlejssize5821chunks14chunkNamessubhubemittedtruenametvschedule386c14852082b4898e39bundlejssize2549chunks15chunkNamestvscheduleemittedtruenameusabillaafa4ae6c29a84d0a7353bundlejssize2283chunks16chunkNamesusabillaemittedtruenamevideo736429bb5b39dd14846dbundlejssize326423chunks17chunkNamesvideoemittedtruenamevideobootstrapper6d5f4eb37bc0f39699b2bundlejssize191676chunks18chunkNamesvideobootstrapperemittedtruenamevidex38b578a6a4a9ef111007bundlejssize4429chunks19chunkNamesvidexemittedtruenameweather686ff98ea499193ccec8bundlejssize18488chunks20chunkNamesweatheremittedtrue'
p22
I1
sS'undercover'
p23
I1
sS'Kaiserlayouturi20161122entertainmentellenswhitehousemannequinchallengeindexhtmlheadlineEllen'
p24
I1
sS'Christie'
p25
I1
sS'horn'
p26
I1
sS'street'
p27
I1
sS'solemn'
p28
I1
sS'regiontitleTextVideo'
p29
I1
sS'spokesman'
p30
I1
sS'Hamilton'
p31
I1
sS'told'
p32
I1
sS'CNNcom'
p33
I1
sS'full16x91101large781medium461mini0small308xsmall221CNNJumbotronConfig'
p34
I1
sS'kicked'
p35
I2
sS'screams'
p36
I1
sS'trueenableVideoPinning'
p37
I1
sS'Profiles'
p38
I2
sS'c1351000'
p39
I1
sS'cult'
p40
I1
sS'converterServicecommonmodulesiframecurrencyConverterasplookupServiceservicescnndotcomlookupaspserviceHosthttpmarketsmoneycnncomCNNMetaRefreshRate'
p41
I1
sS'15000boomrready'
p42
I1
sS'kids'
p43
I1
sS'NewslettersdescriptionCNN'
p44
I1
sS'Tuesday'
p45
I2
sS'changed'
p46
I1
sS'layouturi20161122opinionsnepotismloomsoverpresidencycarpenterindexhtmlheadlineNepotism'
p47
I1
sS'Home'
p48
I3
sS'Orleans'
p49
I1
sS'insurgencythumbnailhttpi2cdncnncomcnnnextdamassets161004114213farcsoldierscolombiasmall11jpgdurationdescriptionColombias'
p50
I1
sS'campaign'
p51
I1
sS'Privacy'
p52
I2
sS'Mirabaud'
p53
I1
sS'falseslots'
p54
I1
sS'sandwich\xe2\x80\x94as'
p55
I1
sS'unit'
p56
I1
sS'Star'
p57
I1
sS'browse'
p58
I1
sS'call'
p59
I2
sS'preview'
p60
I3
sS'type'
p61
I1
sS'tell'
p62
I1
sS'enableForCarouselstrueenableForImagestrueloadTimeOut5000threshold300CNNFeatures'
p63
I1
sS'Danelle'
p64
I1
sS'brings'
p65
I1
sS'windowconsole'
p66
I2
sS'award'
p67
I1
sS'aware'
p68
I1
sS'casualties'
p69
I1
sS'97'
p70
I1
sS'Signing'
p71
I1
sS'err'
p72
I7
sS'refusing'
p73
I1
sS'videographers'
p74
I1
sS'fortress'
p75
I1
sS'intlhomepage'
p76
I1
sS'httpeditioncnncomsubstr7windowsfasyncconfigflickerControl'
p77
I1
sS'FARC'
p78
I1
sS'hreftermsTerms'
p79
I1
sS'Hurricane'
p80
I1
sS'doughlayouturi20161114healthdepressionteengirlsindexhtmlheadlineWhy'
p81
I1
sS'surfacelayouticonTypegalleryuri20161115luxurypatekphilippe1518wristwatchindexhtmlheadlineRare'
p82
I1
sS'Digital'
p83
I1
sS'validated'
p84
I1
sS'windowperformancemarkoptimizelyEnd'
p85
I1
sS'nameReliableSourcessubTitleEssential'
p86
I1
sS'damage'
p87
I1
sS'Jack'
p88
I1
sS'env'
p89
I1
sS'disappoint'
p90
I1
sS'oceans'
p91
I1
sS'boyslayouturi20161114golfgolfindiaaditiashokindexhtmlheadlineTeen'
p92
I1
sS'superyacht'
p93
I1
sS'wrong'
p94
I1
sS'trueenableJumbotronAutoScroll'
p95
I1
sS'pageType'
p96
I1
sS'ThingssubTitleUp'
p97
I1
sS'Carlos'
p98
I1
sS'winBOOMR'
p99
I1
sS'docgetElementsByTagNamescript0fdmutatefunction'
p100
I1
sS'sectionName'
p101
I1
sS'Japanese'
p102
I1
sS'green'
p103
I1
sS'enter'
p104
I1
sS'enableAdLock'
p105
I1
sS'interestthumbnailhttpi2cdncnncomcnnnextdamassets161123101205trumpatnyt3small11jpgdurationdescriptionlayouturi20161123opinionschristianeamanpourjournalismintrumperaindexhtmlheadlineAmanpour'
p106
I1
sS'storyCNNTripAdvisor'
p107
I1
sS'feedback'
p108
I1
sS'Catholics'
p109
I3
sS'adobeEnvironmentprodadobeSwfPathelementappscvp30swfAccessEnablerLoaderswfaspenContextprev10endSlatectaTextSign'
p110
I1
sS'recreational'
p111
I1
sS'crew'
p112
I1
sS'jQueryfnonZoneRendered'
p113
I1
sS'hidden'
p114
I1
sS'tourist'
p115
I1
sS'safe'
p116
I1
sS'fivedecade'
p117
I1
sS'India'
p118
I1
sS'fitness'
p119
I1
sS'debug'
p120
I1
sS'togetherthumbnailhttpi2cdncnncomcnnnextdamassets161118161858sepo1small11jpgduration0241descriptionFor'
p121
I1
sS'bone'
p122
I1
sS'Motorsport'
p123
I2
sS'mangled'
p124
I1
sS'hosted'
p125
I1
sS'Hollywood'
p126
I2
sS'driving'
p127
I1
sS'Wars'
p128
I1
sS'c115840'
p129
I1
sS'resume'
p130
I1
sS'NowdescriptionThe'
p131
I1
sS'idadmod85a882a72scriptNamehttpzcdncnncomadscnnisinglescnnientitlement01jsidadmode74dbd68dscriptNamehttpzcdncnncomadscnnisinglescnnientitlement02jsidadmod596291844scriptNamehttpzcdncnncomadscnnisinglescnnientitlement03jsidadmod9a979d11scriptNamehttpzcdncnncomadscnnisinglescnnientitlement04jsidadmod2b3ba0432scriptNamehttpzcdncnncomadscnnisinglescnnientitlement05js'
p132
I1
sS'documentgetElementByIdtrySlotsi'
p133
I1
sS'trueenableAspenForTOS'
p134
I1
sS'Clinton'
p135
I1
sS'equine'
p136
I1
sS'National'
p137
I1
sS'BellsubTitleKey'
p138
I1
sS'detailstypefor'
p139
I1
sS'corrections'
p140
I1
sS'onto'
p141
I1
sS'falselog'
p142
I1
sS'Traveller'
p143
I2
sS'Waite'
p144
I1
sS'service'
p145
I4
sS'top'
p146
I2
sS'historian'
p147
I1
sS'sexthumbnailhttpi2cdncnncomcnnnextdamassets160816141111lauren8copysmall11jpgdurationdescriptionAs'
p148
I1
sS'500yearold'
p149
I1
sS'\xe2\x80\x8bChefchaouen'
p150
I1
sS'bitter'
p151
I1
sS'Search'
p152
I1
sS'zoneIds'
p153
I1
sS'begins'
p154
I1
sS'mercy'
p155
I1
sS'Set'
p156
I4
sS'Features'
p157
I7
sS'Sep'
p158
I1
sS'legalize'
p159
I1
sS'tree'
p160
I1
sS'Cyber'
p161
I2
sS'nations'
p162
I1
sS'matter'
p163
I1
sS'trueenableAspenForCVP'
p164
I1
sS'powers'
p165
I1
sS'fashion'
p166
I1
sS'windowsfasyncconfiguid'
p167
I1
sS'modern'
p168
I1
sS'talking'
p169
I2
sS'scriptdatasetdsVal'
p170
I1
sS'tells'
p171
I1
sS'functioning'
p172
I1
sS'latter'
p173
I1
sS'snow'
p174
I1
sS'luxury'
p175
I1
sS'hrefhttpwwwpbsorgnewshourrundowntrumpchildrensrolesblurlinetransitioncompany'
p176
I1
sS'wineditionadTargetscapTopics'
p177
I1
sS'NewslettersselectedButtonTextAddedsubmitButtonTextSubscribesubmittedButtonTextSubmittedmailchimpUrlhttpsbulletincnncomapiv1subscribeconfirmationtitleThanks'
p178
I1
sS'Frozen'
p179
I1
sS'UTCexpirationPeriod2592000000nameNotifiedIEUnSupportvaluetrueheaderTextYour'
p180
I1
sS'involving'
p181
I1
sS'drought'
p182
I1
sS'grave'
p183
I1
sS'goal\xe2\x80\x94eradication'
p184
I1
sS'Lewis'
p185
I1
sS'devastating'
p186
I1
sS'seasonthumbnailhttpi2cdncnncomcnnnextdamassets161010162822mercedeshamiltonrosbergaustraliasmall11jpgdurationdescriptionCNN'
p187
I1
sS'Election'
p188
I2
sS'left'
p189
I1
sS'saying'
p190
I2
sS'falseenableWeather'
p191
I1
sS'orchestra'
p192
I2
sS'windoweditionadTargets'
p193
I1
sS'trueenableGalleryAds'
p194
I1
sS'Anna'
p195
I1
sS'European'
p196
I1
sS'classtroubleshootinglink'
p197
I2
sS'layout'
p198
I1
sS'Equestrian'
p199
I2
sS'Republicans'
p200
I1
sS'blighted'
p201
I1
sS'Biz'
p202
I1
sS'lowsthumbnailhttpi2cdncnncomcnnnextdamassets160405104735tigerwoodsteasesmall11jpgdurationdescriptionTiger'
p203
I1
sS'stop'
p204
I1
sS'Ladies'
p205
I1
sS'amazon'
p206
I1
sS'runs'
p207
I1
sS'tracklayouticonTypevideouri20161010motorsportgallerythestoryofthe2016seasonindexhtmlheadlineF1s'
p208
I1
sS'architecture'
p209
I1
sS'textjavascriptscrSrc'
p210
I1
sS'Caribbean'
p211
I1
sS'Heres'
p212
I1
sS'AvailableimageUrlhttpi2cdncnncomcnn2016images1104electiondaygeojpggeoCheckEnabledtruegeoCheckTargetsAFJPMYSHTHYTpageRefreshTime360mutedPlayerstartTime0stopInterval30stopTime0timeZoneGMTembedLinksclipboardOperationsSWFhttpicdncnncomcnnvideoassetsCNNVideoClipboardCopyswfbuttonImagecdnassetpathbuildassetsembedvideobuttonpngimageButtonXOffset0imageButtonYOffset3embedLinkPatternu003ciframe'
p213
I1
sS'analytics'
p214
I1
sS'result'
p215
I1
sS'Formula'
p216
I1
sS'scenethumbnailhttpi2cdncnncomcnnnextdamassets160621153613masalabarmumbaisunsetcartercocktailsmall11jpgdurationdescriptionMumbais'
p217
I1
sS'trueBOOMRsendBeaconbindthis'
p218
I1
sS'continent'
p219
I1
sS'jQueryparseHTMLdata'
p220
I1
sS'cooperation'
p221
I1
sS'drawn'
p222
I1
sS'titlelayouticonTypegalleryuri20161117sportgallerymirabaudyachtracingbestphotosindexhtmlheadlineWorlds'
p223
I1
sS'empower'
p224
I1
sS'thisthumbnailhttpi2cdncnncomcnnnextdamassets161013160748dinosaurssmall11jpegdurationdescriptionlayout'
p225
I1
sS'targetblankstill'
p226
I1
sS'Central'
p227
I1
sS'extend'
p228
I1
sS'trekking'
p229
I1
sS'layouturi20160421usprojectvicchildabuseindexhtmlheadlineChild'
p230
I1
sS'retirement'
p231
I1
sS'nullfunction'
p232
I1
sS'news'
p233
I6
sS'Trumpthumbnailhttpi2cdncnncomcnnnextdamassets161123143609dalailamamongoliaulaanbatorsmall11jpgdurationdescriptionExiled'
p234
I1
sS'Advertise'
p235
I1
sS'improve'
p236
I1
sS'climate'
p237
I4
sS'height234'
p238
I1
sS'dealingslayouturi20161122opinionschinaeuropeclimateblocindexhtmlheadlineChina'
p239
I1
sS'triggers'
p240
I2
sS'country'
p241
I2
sS'Datenowfdmutatefunction'
p242
I1
sS'NowdescriptionBefore'
p243
I1
sS'Syrian'
p244
I1
sS'layouturi20161116sportoldfriendsracehorseretirementfarmindexhtmlheadlineIf'
p245
I1
sS'srchttphostvideoapiembedhtmlvideovideoId'
p246
I1
sS'fidgetslayouturi20160823worldcanadaindigenoussextraffickingindexhtmlheadlineCanadian'
p247
I1
sS'Board'
p248
I1
sS'Espantildeol'
p249
I1
sS'gratitude'
p250
I1
sS'editioncnncommobilemobilewebhomepage'
p251
I1
sS'detailsdatasetdsValdocbodyappendChildscript'
p252
I1
sS'busthumbnailhttpi2cdncnncomcnnnextdamassets161122112010t1insetbuscrashdriversmall11jpgdurationdescriptionLocal'
p253
I1
sS'timethumbnailhttpi2cdncnncomcnnnextdamassets161024175025guccitennisshoesmall11jpgdurationdescriptionOnce'
p254
I1
sS'dozens'
p255
I1
sS'life'
p256
I3
sS'enableAmazonDisplayAds'
p257
I1
sS'eastern'
p258
I2
sS'Pennsylvania'
p259
I1
sS'dsValdetails'
p260
I1
sS'devicedismissCookieexpirationTue'
p261
I1
sS'marijuana'
p262
I3
sS'girlsthumbnailhttpi2cdncnncomcnnnextdamassets121011141623teenssadsmall11jpgdurationdescriptionDepression'
p263
I1
sS'child'
p264
I1
sS'catch'
p265
I9
sS'trueenableUserMessage'
p266
I1
sS'trueCNNChartbeat'
p267
I1
sS'typeof'
p268
I7
sS'thisdomain'
p269
I1
sS'study'
p270
I3
sS'played'
p271
I1
sS'memorial'
p272
I1
sS'falseBOOMRcnntimer'
p273
I1
sS'heardlayouturi20161123worldhurricanenicaraguacostaricaindexhtmlheadlineHurricane'
p274
I1
sS'beaconTimeoutif'
p275
I1
sS'President'
p276
I2
sS'getCapTopics'
p277
I1
sS'satellite'
p278
I1
sS'negotiationlayouticonTypevideourivideostv20161118syrianexpatorchestraingermanyorigcnnheadlineSyrian'
p279
I1
sS'trueenableLiveFyre'
p280
I1
sS'mobileSSID'
p281
I1
sS'military'
p282
I3
sS'programs'
p283
I1
sS'prioritize'
p284
I1
sS'failing'
p285
I1
sS'contact'
p286
I2
sS'claims'
p287
I1
sS'Native'
p288
I1
sS'leagues'
p289
I1
sS'enableIntelligentLoadfalseenablePictureFillfalselazyLoadtrueloadAllZonesLazytruezonesminWidth0indexhtmlintlhomepage1zone1intlindex3htmlintlhomepagemagellanzone1intlindex3htmlintlhomepagemagellanzone2intlindex3htmlintlhomepagemagellanzone3intlindex3htmlintlhomepagemagellanzone4indexhtmlintlhomepage3zone4640homepagezoneinjectionindexhtmlhomepageinjectionzone3indexhtmlintlhomepage1zone1homepagezoneinjectionindexhtmlhomepageinjectionzone4indexhtmlintlhomepage1zone2indexhtmlintlhomepage1zone3indexhtmlintlhomepage1zone4indexhtmlintlhomepage2zone1indexhtmlintlhomepage3zone1indexhtmlintlhomepage3zone2indexhtmlintlhomepage3zone3indexhtmlintlhomepage3zone4800homepagezoneinjectionindexhtmlhomepageinjectionzone3indexhtmlintlhomepage1zone1homepagezoneinjectionindexhtmlhomepageinjectionzone4indexhtmlintlhomepage1zone2indexhtmlintlhomepage1zone3indexhtmlintlhomepage1zone4indexhtmlintlhomepage2zone1indexhtmlintlhomepage3zone1indexhtmlintlhomepage3zone2indexhtmlintlhomepage3zone3indexhtmlintlhomepage3zone4CNNSiblingNavigation'
p290
I1
sS'human'
p291
I4
sS'labelsmallminWidth0labellargeminWidth768'
p292
I1
sS'IIlayouturi20161123sportracehorseactinpiecesrefusestoberiddenbymalejockeysindexhtmlheadlineThe'
p293
I1
sS'Slovenia'
p294
I1
sS'concerns'
p295
I1
sS'News'
p296
I8
sS'domjsid'
p297
I1
sS'httptrafficoutbraincomnetworktrackpxladvid814actionviewCNNToggleOutbrain'
p298
I1
sS'doccreateElementscriptelemsrc'
p299
I1
sS'dreams'
p300
I1
sS'Heart'
p301
I1
sS'Trump'
p302
I3
sS'MABsrcstaticchartbeatcomjschartbeatmabjssrcstaticchartbeatcomjschartbeatjsuid37612CNNFeeds'
p303
I1
sS'Newsletters'
p304
I1
sS'homelandthumbnailhttpi2cdncnncomcnnnextdamassets161108131821slovenialakebled3small11jpgdurationdescriptionEven'
p305
I1
sS'Horseracing'
p306
I2
sS'Prince'
p307
I1
sS'deal'
p308
I1
sS'people'
p309
I4
sS'somehow'
p310
I1
sS'dead'
p311
I1
sS'scrSrcdocbodyappendChildscriptElementjQuerywindowloadfunction'
p312
I1
sS'election'
p313
I1
sS'bore'
p314
I1
sS'deliveredu003ca'
p315
I1
sS'enemies'
p316
I1
sS'totals'
p317
I1
sS'offcourse'
p318
I1
sS'icy'
p319
I1
sS'Facebook'
p320
I2
sS'Chris'
p321
I1
sS'UTColdCookieNametosAgreedvaluetrueheaderTextheightsmall120medium90large90idtosmessageTextBy'
p322
I1
sS'expires'
p323
I2
sS'trueelemtype'
p324
I1
sS'Yacht'
p325
I2
sS'Daily'
p326
I1
sS'constructive'
p327
I1
sS'architectural'
p328
I1
sS'0trySlots'
p329
I1
sS'Explorer'
p330
I1
sS'Image'
p331
I1
sS'urlcdnoptimizelycomjs128727546jsCNNOutbrainVideoKPISrc'
p332
I1
sS'contours'
p333
I1
sS'whats'
p334
I1
sS'Cup'
p335
I1
sS'undermining'
p336
I1
sS'Clintons'
p337
I1
sS'trueenableRefreshTimers'
p338
I1
sS'televised'
p339
I1
sS'httpscdnsslclicktalenet'
p340
I1
sS'support'
p341
I1
sS'fight'
p342
I1
sS'head'
p343
I3
sS'adSlotTimeout'
p344
I1
sS'becoming'
p345
I1
sS'true'
p346
I5
sS'inside'
p347
I2
sS'juvenile'
p348
I1
sS'looms'
p349
I1
sS'quantservecomaquantjsapD1yc5zQgjmqr5elemasync'
p350
I1
sS'request'
p351
I2
sS'tournament'
p352
I1
sS'CNNPageParams'
p353
I1
sS'Kushners'
p354
I1
sS'targetblankcommentsu003ca'
p355
I1
sS'alerts'
p356
I1
sS'unfoldsgigyaappId3gtUbleJNtrRITgx1mMci7GcIrH8xL9WVfAbzSa4zpFrRwnpqeYd8QTRkr7VCenableOnLeaftrueenableOnFirstZonetrueshareStatsPostURLhttpactioneventcnncomapiv1eventaddEventlivefyrekeyazjgDYu5pGDaNSl4JUIDKEqSUmobileCommentsBaseUrlhttpcnnbootstrapfyrecoapi11publiccommentsncommentsnetworkcnnfyreconetworkNamecnnsiteId353270srcDomainhttpcdnlivefyrecomappembedappembed080timeLineModulePollInterval1tokenEndpointcnnloginappprodservicesec2dmtionetserviceslivefyreauthtokenmsibauthUrlcnncommentslivefyreauthenticationbaseUrlhttpsaudiencecnncomservicescnnerrorUrlcnncommentslivefyreerrorloginUrlcnncommentslivefyreloginwhatsappbaseUrlwhatsappsendtextCNN'
p357
I1
sS'role'
p358
I1
sS'factsthumbnailhttpi2cdncnncomcnnnextdamassets160916153153arcticiceteasesmall11jpgduration0224descriptionCNNs'
p359
I1
sS'wineditionadTargets'
p360
I1
sS'httpssecure'
p361
I1
sS'norail'
p362
I1
sS'update'
p363
I1
sS'diet'
p364
I1
sS'erathumbnailhttpi2cdncnncomcnnnextdamassets161113113657trumpuscapitolsmall11jpgdurationdescriptionlayouturi20161123politicsrussiakremlinustiesimproveindexhtmlheadlineKremlin'
p365
I1
sS'scores'
p366
I1
sS'pierced'
p367
I1
sS'died'
p368
I1
sS'crashu003ca'
p369
I1
sS'Charles'
p370
I1
sS'daily'
p371
I1
sS'subscription'
p372
I2
sS'nineyearold'
p373
I1
sS'time'
p374
I5
sS'serious'
p375
I2
sS'global'
p376
I1
sS'trueenableContainerInjection'
p377
I1
sS'skin'
p378
I1
sS'layers'
p379
I1
sS'father'
p380
I1
sS'hrefcookiecookiesu003cau003cdiv'
p381
I1
sS'Broadcast'
p382
I1
sS'0'
p383
I15
sS'Bolt'
p384
I1
sS'string'
p385
I1
sS'itopicsif'
p386
I1
sS'windowsfasyncconfig'
p387
I2
sS'cnn'
p388
I1
sS'Tech'
p389
I3
sS'handsthumbnailhttpi2cdncnncomcnnnextdamassets161021164051expnascartotalcoverageorig00002001small11jpgduration0213descriptionNASCAR'
p390
I1
sS'mistakethumbnailhttpi2cdncnncomcnnnextdamassets16112119025002isissecretprisonsmall11jpgdurationdescriptionlayouturi20150803travelmoroccobluecitychefchaouenindexhtmlheadline'
p391
I1
sS'Jersey'
p392
I1
sS'layouturi20161123politicsdalailamatrumpreactionindexhtmlheadlineDalai'
p393
I1
sS'1997'
p394
I1
sS'falseenableOptimizely'
p395
I1
sS'item'
p396
I1
sS'team'
p397
I2
sS'inpersistentCtaTextExperienceremoveMinimumDimensionsTimeout1500temppassTempPassCNN10minCNNHtml5PlayerConfig'
p398
I1
sS'spiritual'
p399
I1
sS'livesthumbnailhttpi2cdncnncomcnnnextdamassets161122163830atlantichurricaneseasonreportcardsmall11jpgdurationdescriptionAt'
p400
I1
sS'Gray'
p401
I1
sS'trend'
p402
I2
sS'tou003cbrall'
p403
I2
sS'sign'
p404
I1
sS'boomrready'
p405
I2
sS'3thumbnailhttpi2cdncnncomcnnnextdamassets161123161548thunderstormasthmavictims1small11jpgdurationdescriptionA'
p406
I1
sS'Journalisms'
p407
I1
sS'slotElementId'
p408
I1
sS'current'
p409
I1
sS'goes'
p410
I1
sS'international'
p411
I2
sS'Francis'
p412
I1
sS'Nicholson'
p413
I1
sS'inauguration'
p414
I1
sS'layouturi20161123usnorthdakotapipelineconflictindexhtmlheadlineProtester'
p415
I1
sS'lazyLoad'
p416
I1
sS'address'
p417
I1
sS'earthquake'
p418
I1
sS'change'
p419
I2
sS'weird'
p420
I1
sS'hostsearchwmoneycnncom'
p421
I1
sS'fdmutatefunction'
p422
I1
sS'articleListuri20161122politicstakeawaysdonaldtrumpnewyorktimesmeetingindexhtmlheadlineTrumps'
p423
I1
sS'merely'
p424
I1
sS'crisis'
p425
I1
sS'market'
p426
I1
sS'Australia'
p427
I1
sS'visit'
p428
I4
sS'tears'
p429
I1
sS'abroad'
p430
I3
sS'falsewindowsfasyncconfiguseCanonical'
p431
I1
sS'https'
p432
I2
sS'adbnratf01adrectatf01adrectbtf02tryCount'
p433
I1
sS'prosecutor'
p434
I1
sS'thumbnailhttpi2cdncnncomcnnnextdamassets161114182240aditiashokswinggolfsmall11jpgdurationdescriptionAs'
p435
I1
sS'apparent'
p436
I1
sS'clue'
p437
I1
sS'courselayouticonTypevideourivideosus20161021expnascartotalcoverageorigcnnheadlineNASCAR'
p438
I1
sS'dociframe'
p439
I1
sS'Pope'
p440
I1
sS'c125920'
p441
I1
sS'abortion'
p442
I3
sS'growing'
p443
I1
sS'claim'
p444
I1
sS'Media'
p445
I2
sS'newsletters'
p446
I1
sS'performed'
p447
I1
sS'Terms'
p448
I1
sS'prod'
p449
I1
sS'watching'
p450
I2
sS'1'
p451
I2
sS'adModestandardamazontimeoutForGetAdsCallback1000vendorStringamazonaspenadTypeDefaultprerollcontentModeDefaultvodcontextdefaultcustomertheoplatformNamejssitecnnbitrateNamehls1080pblankMp4AssetPathhttppmdcdnturnercomcnnelementvideoassetsblankmp4capTopicsvendorStringcapenabledPageTypessectionvideosfreewheelassetIdPrefixcnnconstantSsidPrefixconstfocusKeyNameinFocushtmlAdLoadTimeout5000networkSuffixturnerhtml5playernametheoprerollTemporalSlotNamePreroll1profileIdcnnbvpplayerserverUrlhttpbea4cnncomadp1submitRequestTimeout5videoProgressDetectTimeout5000videoStartDetectTimeout5000vpaidCreativeTimeoutDelay5000fullscreenMaxBitrateInfinityjsmdvideoPlayertheokruxvendorStringkruxmaxBitrate1500000onAdEndtokenCompletedonAdPlaytokenonTrackingContentBeginplayOptionsThumbnonecontentModevodcontentSourcecnnonTrackingContentStartcontentTypeVODposterSizeName460x259preloadautoprogressFixedDecimal3progressTrackingInterval40theoPlayerinitialRenditionlowisEmbeddabletruelibraryLocationelementjsvendortheoplayer1664loaderFileNametheoplayerloaderjssubtitlesEnabledByDefaultfalsetargetBuffer20CNNHtml5PlayerConfigenabled'
p452
I1
sS'Chaouen'
p453
I1
sS'cocktail'
p454
I2
sS'lovethumbnailhttpi2cdncnncomcnnnextdamassets161122085248teaseromancegamingonjapansmall11jpgdurationdescriptionlayouturi20161122middleeastisissecretprisoninterviewindexhtmlheadlineISIS'
p455
I1
sS'crashed'
p456
I1
sS'produce'
p457
I1
sS'designed'
p458
I1
sS'boomerangAddMeasureVars'
p459
I1
sS'guys'
p460
I1
sS'grow'
p461
I1
sS'golfers'
p462
I1
sS'oppressionthumbnailhttpi2cdncnncomcnnnextdamassets161122121916angelaryeatthishoursmall11jpgdurationdescriptionPolitical'
p463
I1
sS'Fukushima'
p464
I1
sS'electionthumbnailhttpi2cdncnncomcnnnextdamassets161122083856trumphillaryhandshake2nddebatesmall11jpgdurationdescriptionHillary'
p465
I1
sS'gesture'
p466
I1
sS'Breaking'
p467
I3
sS'Jan'
p468
I2
sS'course'
p469
I2
sS'initClickTalewindow'
p470
I2
sS'www04ptc0f3955ae0ca2486489b56913cbbb8985jsscriptElementsrc'
p471
I1
sS'White'
p472
I1
sS'titleCNN'
p473
I1
sS'menthumbnailhttpi2cdncnncomcnnnextdamassets161121165057actinpieceshorseprofilesmall11jpgdurationdescriptionLethal'
p474
I1
sS'presence'
p475
I1
sS'Nword'
p476
I2
sS'window'
p477
I2
sS'offers'
p478
I2
sS'World'
p479
I7
sS'37612windowsfasyncconfigdomain'
p480
I1
sS'Cable'
p481
I1
sS'safariwebServiceURLhttpsalertshubcnncomdistributionhubwebsitePushIDwebcomcnnredalertCNNadTimers'
p482
I1
sS'seathumbnailhttpi2cdncnncomcnnnextdamassets160519151115migalooprivatesubmersibleyacht2small11jpgdurationdescriptionThe'
p483
I1
sS'killed'
p484
I2
sS'name'
p485
I1
sS'apiloaderBaseURLFULLPATHhttpwwwcnncomelementwidgetvideovideoapiapiloaderBaseURLelementwidgetvideovideoapiapiloaderBaseURLLocalhttplocalhostcnncom3000buildapiuseLegacyVideoLoadertrueversionlatestautoStartWhenCmsEnabledenableSectionFrontstruemutePlayertruerememberMutePlayerTime0collectionplayNextVideoTimeout1500delayVideoCarouseltruegoFreePreviewadobeEnvironmentprodadobeSwfPathelementappscvp30swfAccessEnablerLoaderswfaspenContextprev10endSlatectaTextSign'
p486
I1
sS'iReport'
p487
I2
sS'layouturi20161122politicshillaryclintonchallengeresultsindexhtmlheadlineClinton'
p488
I1
sS'TurnernbspBroadcastingnbspSystemnbspInc'
p489
I1
sS'breakthrough'
p490
I1
sS'Live'
p491
I1
sS'begun'
p492
I1
sS'girl'
p493
I1
sS'doccreateElementscriptscriptsrc'
p494
I1
sS'easternmost'
p495
I1
sS'tried'
p496
I1
sS'space'
p497
I2
sS'Michigan'
p498
I1
sS'bridesthumbnailhttpi2cdncnncomcnnnextdamassets160805171639vietnamchinachildtraffickingescaped2small11jpgdurationdescriptionWhen'
p499
I1
sS'investigation'
p500
I1
sS'Connected'
p501
I1
sS'targetblanktroubleshooting'
p502
I2
sS'happenings'
p503
I1
sS'amznkey3288'
p504
I1
sS'earlier'
p505
I1
sS'rebel'
p506
I1
sS'Security'
p507
I2
sS'CNNUtilsexistsCNNcontentModelanalyticscaptopics'
p508
I1
sS'momentsthumbnailhttpi2cdncnncomcnnnextdamassets161121084304princeharrytimesabroadsmall11jpgduration0106descriptionAs'
p509
I1
sS'diethumbnailhttpi2cdncnncomcnnnextdamassets140407073053golfbucketlistroyaltroon14thgreensmall11jpgdurationdescriptionWe'
p510
I1
sS'Money'
p511
I1
sS'transition'
p512
I1
sS'disguises'
p513
I1
sS'targetblankAngela'
p514
I1
sS'highprofile'
p515
I1
sS'fd'
p516
I3
sS'Asia'
p517
I3
sS'vote'
p518
I1
sS'Probably'
p519
I1
sS'message'
p520
I1
sS'city'
p521
I3
sS'silent'
p522
I1
sS'Monday'
p523
I1
sS'inpersistentCtaTextExperienceremoveMinimumDimensionsTimeout1500temppassTempPassCNN10minhtml5PlayeradModestandardamazontimeoutForGetAdsCallback1000vendorStringamazonaspenadTypeDefaultprerollcontentModeDefaultvodcontextdefaultcustomertheoplatformNamejssitecnnbitrateNamehls1080pblankMp4AssetPathhttppmdcdnturnercomcnnelementvideoassetsblankmp4capTopicsvendorStringcapenabledPageTypessectionvideosfreewheelassetIdPrefixcnnconstantSsidPrefixconstfocusKeyNameinFocushtmlAdLoadTimeout5000networkSuffixturnerhtml5playernametheoprerollTemporalSlotNamePreroll1profileIdcnnbvpplayerserverUrlhttpbea4cnncomadp1submitRequestTimeout5videoProgressDetectTimeout5000videoStartDetectTimeout5000vpaidCreativeTimeoutDelay5000fullscreenMaxBitrateInfinityjsmdvideoPlayertheokruxvendorStringkruxmaxBitrate1500000onAdEndtokenCompletedonAdPlaytokenonTrackingContentBeginplayOptionsThumbnonecontentModevodcontentSourcecnnonTrackingContentStartcontentTypeVODposterSizeName460x259preloadautoprogressFixedDecimal3progressTrackingInterval40theoPlayerinitialRenditionlowisEmbeddabletruelibraryLocationelementjsvendortheoplayer1664loaderFileNametheoplayerloaderjssubtitlesEnabledByDefaultfalsetargetBuffer20liveStreamblockSlatemessageTextWe'
p524
I1
sS'caught'
p525
I1
sS'Germanythumbnailhttpi2cdncnncomcnnnextdamassets161122220414friedrichtrumpsmall11jpgdurationdescriptionDonald'
p526
I1
sS'2'
p527
I2
sS'getAdkey'
p528
I1
sS'stricthtmlclassName'
p529
I1
sS'speaking'
p530
I1
sS'eyes'
p531
I1
sS'allegedly'
p532
I1
sS'season'
p533
I1
sS'scrSrcscriptElement'
p534
I1
sS'released'
p535
I1
sS'Trumps'
p536
I2
sS'11'
p537
I1
sS'sailing'
p538
I1
sS'edition'
p539
I6
sS'19'
p540
I1
sS'CNNrightRailConfig'
p541
I1
sS'computer'
p542
I1
sS'turningthumbnailhttpi2cdncnncomcnnnextdamassets161121174805chattanoogabuscrashsmall11jpgdurationdescriptionThe'
p543
I1
sS'browser'
p544
I2
sS'illness'
p545
I1
sS'topics'
p546
I1
sS'lice'
p547
I1
sS'Winnipeg'
p548
I1
sS'voiced'
p549
I1
sS'sells'
p550
I1
sS'sat'
p551
I1
sS'DoormailchimpId6da287d761newsletterID6da287d761subImageicdncnncomcnnelementimg40subscriptionfivethingsjpgbuttonTextKnow'
p552
I1
sS'potential'
p553
I1
sS'Umstead'
p554
I1
sS'doccreateElementNShttpwwww3org1999xhtml'
p555
I1
sS'Theyve'
p556
I3
sS'track'
p557
I1
sS'Signs'
p558
I2
sS'layouturi20161114fashionseeyourselfxhumanfuturesexpandedindexhtmlheadlineOur'
p559
I1
sS'falseCNNImageBreakpoints'
p560
I1
sS'cleared'
p561
I1
sS'GOP'
p562
I1
sS'000000'
p563
I3
sS'filly'
p564
I1
sS'thumbnailhttpi2cdncnncomcnnnextdamassets150717130005moroccoreup1small11jpgdurationdescriptionSurrounded'
p565
I1
sS'raquo'
p566
I1
sS'trafficking'
p567
I2
sS'professional'
p568
I1
sS'Web'
p569
I2
sS'shot'
p570
I1
sS'spaces'
p571
I1
sS'shoe'
p572
I1
sS'Actinpieces'
p573
I1
sS'htmldocument'
p574
I1
sS'title'
p575
I1
sS'layouturi20161121asiaromancegamingjapanindexhtmlheadlineWhy'
p576
I1
sS'var'
p577
I14
sS'3'
p578
I1
sS'Leadership'
p579
I2
sS'hostage'
p580
I3
sS'hrefcookiecookiesu003ca'
p581
I1
sS'nearly'
p582
I1
sS'Instagram'
p583
I1
sS'falsedom'
p584
I1
sS'morning'
p585
I1
sS'USCAPRVICNNWeatherConfig'
p586
I1
sS'husband'
p587
I1
sS'Vital'
p588
I2
sS'calendar'
p589
I1
sS'jQuerydocumentonZoneRenderedsetAdSlotsfunction'
p590
I1
sS'BusinessmailchimpId6711ab179fnewsletterID6711ab179fsubImageicdncnncomcnnelementimg40subscriptionquestmeansbusinesspngbuttonTextFresh'
p591
I1
sS'Worldwide'
p592
I2
sS'htmlclassNamereplacebfontfaceb'
p593
I1
sS'sites'
p594
I2
sS'Christies'
p595
I1
sS'detailssrcscriptasync'
p596
I1
sS'Bangalore'
p597
I1
sS'dismissCookieexpirationTue'
p598
I1
sS'hrefhttpwwwvoxcomlatestnews2016111113602312donaldtrumptransitionteam'
p599
I1
sS'Team'
p600
I2
sS'companionAdStates'
p601
I1
sS'priests'
p602
I1
sS'according'
p603
I3
sS'tour'
p604
I1
sS'railway'
p605
I1
sS'Travel'
p606
I3
sS'moreover'
p607
I1
sS'caring'
p608
I1
sS'teammate'
p609
I1
sS'Serviceu003ca'
p610
I1
sS'blastthumbnailhttpi2cdncnncomcnnnextdamassets161120212056dakotaaccesspipelineprotestsmall11jpgdurationdescriptionProtesters'
p611
I1
sS'Schools'
p612
I1
sS'trueenableAppia'
p613
I1
sS'photos'
p614
I1
sS'FoodDrink'
p615
I2
sS'spirit'
p616
I1
sS'captivity'
p617
I1
sS'on\xe2\x80\x8b'
p618
I1
sS'relationsthumbnailhttpi2cdncnncomcnnnextdamassets160727150839trumpputinsplit2small11jpgdurationdescriptionRussia'
p619
I1
sS'investigating'
p620
I1
sS'Lauren'
p621
I1
sS'Tennis'
p622
I2
sS'tiny'
p623
I1
sS'thissignMeUpSign'
p624
I1
sS'trueenableChartbeat'
p625
I1
sS'agreeu003cdivCNNVideoConfig'
p626
I1
sS'familiarlayouturi20161115techgirlsdesignafricaspacesatelliteindexhtmlheadlineTeen'
p627
I1
sS'globetrotting'
p628
I1
sS'pay'
p629
I2
sS'shifts'
p630
I1
sS'html'
p631
I1
sS'hostsearchwgooglew23ww'
p632
I1
sS'struggling'
p633
I1
sS'document'
p634
I4
sS'events'
p635
I1
sS'status'
p636
I1
sS'entertainmentzoneadIdadrectbtf02outBrainIdAR38healthzoneadIdadrectatf01outBrainIdSF8livingzoneadIdadrectatf01outBrainIdSF9politicszoneadIdadrectatf01outBrainIdSF6techzoneadIdadrectatf01outBrainIdSF7travelzoneadIdadrectatf01outBrainIdSF10uszoneadIdadrectatf01outBrainIdSF4worldzoneadIdadrectatf01outBrainIdSF5CNNPushAlertsConfig'
p637
I1
sS'closest'
p638
I1
sS'driver'
p639
I3
sS'layouturi20161122politicsangelaryesoundsofftrumpsupportercnntvindexhtmlheadlineYour'
p640
I1
sS'youthoriented'
p641
I1
sS'undefined'
p642
I1
sS'magical'
p643
I1
sS'desktopSSID'
p644
I1
sS'Ryeu003ca'
p645
I1
sS'summer'
p646
I1
sS'United'
p647
I1
sS'Service'
p648
I4
sS'documentcreateElementiframemeasuresAdded'
p649
I1
sS'Markets'
p650
I2
sS'guides'
p651
I1
sS'fastdomeztpushqacct'
p652
I1
sS'asthma'
p653
I2
sS'churns'
p654
I1
sS'4'
p655
I1
sS'struck'
p656
I1
sS'skier'
p657
I1
sS'kills'
p658
I1
sS'read'
p659
I1
sS'Denny'
p660
I1
sS'Project'
p661
I2
sS'Tour'
p662
I1
sS'hrefhttpwwwcnncom20161121europepopefrancisabsolveabortiondecisionu003ca'
p663
I1
sS'preference'
p664
I4
sS'world'
p665
I2
sS'Transcripts'
p666
I1
sS'falseenableLiveVideoGeoCheck'
p667
I1
sS'functiontagName'
p668
I1
sS'nullif'
p669
I1
sS'tsunami'
p670
I1
sS'London'
p671
I1
sS'FeedmailchimpId87688954aanewsletterID87688954aasubImageicdncnncomcnnelementimg40subscriptiongreatbigstoryjpgbuttonTextAdd'
p672
I1
sS'mcountmeasures'
p673
I1
sS'newsletteru003cbrThanks'
p674
I1
sS'sneaker'
p675
I2
sS'Entertainment'
p676
I5
sS'ezt'
p677
I2
sS'Migaloo'
p678
I1
sS'memories'
p679
I1
sS'layouticonTypevideourivideosworld20161122terrywaitehostagenegotiatororigcnnheadlineA'
p680
I1
sS'breakingNewsttl120000urlhttpdatacnncomjsonpbreakingnewsinternationaljsonCNNGoFreePreviewConfig'
p681
I1
sS'provider'
p682
I2
sS'beaconSent'
p683
I2
sS'scientific'
p684
I1
sS'business'
p685
I1
sS'prosecution'
p686
I1
sS'NowdescriptionWe'
p687
I1
sS'iconic'
p688
I1
sS'doccreateElementtagNamewinWRInitTime'
p689
I1
sS'truevar'
p690
I1
sS'entitlementSingletons'
p691
I1
sS'favorite'
p692
I2
sS'Add'
p693
I6
sS'rising'
p694
I1
sS'Luxury'
p695
I4
sS'Otto'
p696
I2
sS'CNNMoney'
p697
I1
sS'happening'
p698
I1
sS'prepare'
p699
I1
sS'Wheeler'
p700
I1
sS'alleged'
p701
I1
sS'trueenableVideoExperienceUnificationVideoPinning'
p702
I1
sS'stars'
p703
I1
sS'slopes'
p704
I1
sS'Pipeline'
p705
I1
sS'fanatic'
p706
I1
sS'Freedom'
p707
I2
sS'Harry'
p708
I2
sS'Marvel'
p709
I1
sS'trySlotsi'
p710
I1
sS'bucket'
p711
I1
sS'Gadgets'
p712
I2
sS'doc'
p713
I5
sS'agree'
p714
I2
sS'crashlayouturi20161123uschattanoogaschoolbuscrashindexhtmlheadlineWitness'
p715
I1
sS'attacked'
p716
I1
sS'musclesthumbnailhttpi2cdncnncomcnnnextdamassets16110814400902marijuanalegislationfilesmall11jpgdurationdescriptionJust'
p717
I1
sS'threshold1200disableHoverThreshold1CNNBylineImages'
p718
I1
sS'getRefDom'
p719
I1
sS'politics'
p720
I1
sS'workday'
p721
I1
sS'5'
p722
I4
sS'registryURL'
p723
I1
sS'poor'
p724
I1
sS'durations'
p725
I1
sS'48804'
p726
I1
sS'CNN'
p727
I24
sS'trueenableChartbeatMAB'
p728
I1
sS'gastric'
p729
I1
sS'nullBOOMRcnntimeout'
p730
I1
sS'fraudulent'
p731
I1
sS'slotsindexOfslotElementId'
p732
I1
sS'hugely'
p733
I1
sS'cnnmobileweblinktag2CNNBannerBreakpoints'
p734
I1
sS'Canada'
p735
I1
sS'Pressroom'
p736
I2
sS'scriptElement'
p737
I1
sS'tours'
p738
I1
sS'children'
p739
I3
sS'skiers'
p740
I1
sS'wavesthumbnailhttpi2cdncnncomcnnnextdamassets161122122018japanquaketsunamiwaves2small11jpgduration0102descriptionA'
p741
I1
sS'former'
p742
I1
sS'init'
p743
I1
sS'siblings'
p744
I1
sS'EditionmailchimpIdeubreakingnewsnewsletterIDeubreakingnewsisGigyatruesubImageicdncnncomcnnelementimg40subscriptioninternationalgraphicjpgbuttonTextStay'
p745
I1
sS'layouturi20161114travelmoroccoatlasmountainskitrekindexhtmlheadlineSkiing'
p746
I1
sS'detailsasyncscripttype'
p747
I1
sS'trueenableOutbrainVideoKPI'
p748
I1
sS'avatarhostavatarcnncominlineShareBarpageTypearticleembedscriptsinstagramjsplatforminstagramcomenUSembedsjstwitterjsplatformtwittercomwidgetsjslivefyrejscdnlivefyrecomLivefyrejsfacebookMessengerappId989591237802489pageId5550296508buttonColorbluebuttonSizexlargeverbiageChat'
p749
I1
sS'drugged'
p750
I1
sS'careerlayouticonTypegalleryuri20161025sportgallerymosticonictrainersindexhtmlheadline11'
p751
I1
sS'list'
p752
I3
sS'grandfather'
p753
I1
sS'plain'
p754
I1
sS'Impact'
p755
I2
sS'Blowenlayouturi20161108travelgreaterlondonlesserknownattractionsindexhtmlheadlineLondoners'
p756
I1
sS'editioncnncommainhomepage'
p757
I1
sS'negotiator'
p758
I1
sS'perspective'
p759
I1
sS'East'
p760
I2
sS'Korea'
p761
I2
sS'stood'
p762
I1
sS'section'
p763
I1
sS'brief'
p764
I1
sS'version'
p765
I3
sS'scientists'
p766
I2
sS'jQuerydocumentreadyadSlotTimeoutBOOMRplugins'
p767
I1
sS'ArrayisArraywineditionadTargetscapTopics'
p768
I1
sS'documentgetElementsByTagNamehtml0Modernizrloadtest'
p769
I1
sS'movement'
p770
I1
sS'alivelayouticonTypevideourivideosworld20161115expblindskiertotalcoverageorigcnnheadlineThis'
p771
I1
sS'falseenableCriteoAds'
p772
I1
sS'hrefhttpswwwncronlineorgblogsncrtodaycatholicsvotetrump'
p773
I1
sS'answers'
p774
I1
sS'forgive'
p775
I1
sS'traffickersthumbnailhttpi2cdncnncomcnnnextdamassets160713092350iempathizepunishersmall11jpgdurationdescriptionAcross'
p776
I1
sS'tracks'
p777
I1
sS'Wholl'
p778
I1
sS'strong'
p779
I1
sS'ahead'
p780
I1
sS'inspired'
p781
I1
sS'internationaltoUpperCasehost'
p782
I1
sS'amount'
p783
I1
sS'arent'
p784
I1
sS'Jared'
p785
I1
sS'Style'
p786
I1
sS'family'
p787
I1
sS'Europe'
p788
I4
sS'takes'
p789
I2
sS'hostsearchwwwwuseditionnextcnncom'
p790
I1
sS'markets'
p791
I1
sS'quakelayouticonTypevideourivideosweather20161118climatechangefactsorigjpmcnnheadlineUndeniable'
p792
I1
sS'teen'
p793
I1
sS'Americas'
p794
I2
sS'American'
p795
I3
sS'20000'
p796
I1
sS'windowperformancemarkfooterStart'
p797
I1
sS'culturelayouticonTypegalleryuri20151106golfgallerygolfinitiativegalleryduplicate2indexhtmlheadline19'
p798
I1
sS'intlindexhtml'
p799
I1
sS'layouturi20161122healthconjoinedtwinsmonthlaterrecoveryindexhtmlheadlineSeparated'
p800
I1
sS'firmly'
p801
I1
sS'information'
p802
I1
sS'width416'
p803
I1
sS'fetchUrl'
p804
I1
sS'blindthumbnailhttpi2cdncnncomcnnnextdamassets161115084917expblindskiertotalcoverageorig00000728small11jpgduration0307descriptionUS'
p805
I1
sS'sacred'
p806
I1
sS'Chattanooga'
p807
I2
sS'plans'
p808
I1
sS'winperformancegetEntriesByTypemeasure'
p809
I1
sS'trueenableProximic'
p810
I1
sS'waves'
p811
I1
sS'short'
p812
I1
sS'anytime'
p813
I2
sS'media'
p814
I1
sS'playing'
p815
I1
sS'reservoir'
p816
I1
sS'textjavascriptscptparentNodeinsertBeforeelem'
p817
I1
sS'trySlotslengthwhereBOOMR'
p818
I1
sS'Atlas'
p819
I1
sS'slotspushtrySlotsitrySlotsi'
p820
I1
sS'Stein'
p821
I1
sS'pactthumbnailhttpi2cdncnncomcnnnextdamassets161123134220southkoreajapanmilitarypactsmall11jpgdurationdescriptionJapan'
p822
I1
sS'late'
p823
I1
sS'resort'
p824
I2
sS'detected'
p825
I1
sS'Quest'
p826
I1
sS'latestmustread'
p827
I1
sS'return'
p828
I9
sS'seeking'
p829
I1
sS'Please'
p830
I3
sS'Michael'
p831
I1
sS'predator'
p832
I1
sS'Modernizrfontfacecomplete'
p833
I1
sS'communities'
p834
I1
sS'trueenableRubiconFastlane'
p835
I1
sS'Chopek'
p836
I1
sS'courses'
p837
I3
sS'threshold640CNNbundleHost'
p838
I1
sS'citySearchweathercitySearchenableInHeadertrueenableInFootertruegetForecastweathergetForecastserviceCitySearchHosthttpweatherapicnnioserviceForecastHosthttpweatherapicnniostoredLocationsAmount6useCNNServicetruetry'
p839
I1
sS'hrefwwwcnncomhelpcnngotroubleshootinghtml'
p840
I2
sS'Sport'
p841
I3
sS'jsusermsgagreeI'
p842
I1
sS'Destinations'
p843
I2
sS'week'
p844
I1
sS'weight'
p845
I2
sS'hard'
p846
I1
sS'oftenthumbnailhttpi2cdncnncomcnnnextdamassets161122165314wisdomprojecthalffullsmall11jpgdurationdescriptionLogically'
p847
I1
sS'7'
p848
I1
sS'jQuerydocumentonZonesAndDomReadyfunction'
p849
I1
sS'issue'
p850
I1
sS'risen'
p851
I1
sS'horse'
p852
I1
sS'winedition'
p853
I1
sS'winsetTimeoutfunction'
p854
I1
sS'Architecture'
p855
I2
sS'imagine'
p856
I1
sS'Opinion'
p857
I2
sS'registryFilesplit0'
p858
I1
sS'epicenter'
p859
I1
sS'launch'
p860
I1
sS'persists'
p861
I2
sS'setRefDomwin'
p862
I1
sS'\xe2\x80\x8b\xe2\x80\x8blayouturi20161123sportusainboltmoviejustingatlinathleticsindexhtmlheadlineUsain'
p863
I1
sS'Presidentelect'
p864
I2
sS'major'
p865
I1
sS'dont'
p866
I1
sS'feel'
p867
I2
sS'girls'
p868
I3
sS'Dalai'
p869
I1
sS'feet'
p870
I1
sS'competitionlayouticonTypegalleryuri20161102golfgallerytigerwoodshighslowsdecember2016returnindexhtmlheadlineTiger'
p871
I1
sS'Indian'
p872
I1
sS'hrefhttpwwwcnncom20161122ustennesseechattanoogaschoolbusaccidentindexhtmldeadly'
p873
I1
sS'miss'
p874
I1
sS'CNNINJECTORloadFeatureusabilla'
p875
I1
sS'story'
p876
I2
sS'Transportation'
p877
I1
sS'leading'
p878
I2
sS'httppixel'
p879
I1
sS'Autos'
p880
I2
sS'storm'
p881
I1
sS'trueenableTiming'
p882
I1
sS'2115'
p883
I2
sS'muscles'
p884
I1
sS'statement'
p885
I1
sS'curiosityfueled'
p886
I1
sS'hrefhttpwwwcnncom20161111politicsclimatechangedonaldtrumpindexhtmlwalk'
p887
I1
sS'assaulted'
p888
I1
sS'youth'
p889
I2
sS'risks'
p890
I1
sS'Click'
p891
I2
sS'confessional'
p892
I1
sS'wasnt'
p893
I1
sS'alongside'
p894
I1
sS'69magnitude'
p895
I1
sS'Gov'
p896
I1
sS'option'
p897
I1
sS'mountain'
p898
I1
sS'AmazeddescriptionWe'
p899
I1
sS'traffickingthumbnailhttpi2cdncnncomcnnnextdamassets160822092150cfpcanadaoutreach00033105small11jpgduration0446descriptionA'
p900
I1
sS'officers'
p901
I1
sS'Germany'
p902
I1
sS'interval20isVisibletruepageTypesectionresetDelay3resetThreshold17sectionNameintlhomepage'
p903
I1
sS'youre'
p904
I1
sS'play'
p905
I2
sS'electric'
p906
I1
sS'significant'
p907
I1
sS'services'
p908
I1
sS'wineditionadTargetscapTopicsfor'
p909
I1
sS'CNNWebpackAssets'
p910
I2
sS'mobile'
p911
I1
sS'UpnoThanksButtonTextView'
p912
I1
sS'cover'
p913
I1
sS'Speed'
p914
I1
sS'golf'
p915
I5
sS'phenomenon'
p916
I1
sS'aboutnameQuestsubTitleQuest'
p917
I1
sS'headlines'
p918
I1
sS'hrefhttpwwwcnncom20161121asiajapanearthquakeindexhtmlearthquake'
p919
I1
sS'pageTopheadlineauthorshowNameisArticleVideoCollectionfalsepublishDate20161123T112141ZpageBrandingdefaultchartbeatsectionsbrandingcontentpagedefaultbrandingcontentzonedefaultbrandingcontentcontainerdefaultbrandingcontentcard'
p920
I1
sS'weightthumbnailhttpi2cdncnncomcnnnextdamassets150721151902overweightmaneatingsmall11jpgdurationdescriptionIf'
p921
I1
sS'money'
p922
I1
sS'twins'
p923
I1
sS'Masters'
p924
I1
sS'reporters'
p925
I1
sS'falseCNNAdsConfig'
p926
I1
sS'Help'
p927
I1
sS'consensual'
p928
I1
sS'CNNpageTimer'
p929
I1
sS'Weprimeve'
p930
I1
sS'thumbnailhttpi2cdncnncomcnnnextdamassets1602241034480180smovies0224small11jpgdurationdescriptionOld'
p931
I1
sS'sex'
p932
I1
sS'close'
p933
I2
sS'arm'
p934
I1
sS'jQuerydocumentonZonesAndDomReadyadSlotTimeout'
p935
I1
sS'pictures'
p936
I1
sS'falsegalleryAdClicks'
p937
I1
sS'Park'
p938
I1
sS'won'
p939
I1
sS'Terry'
p940
I1
sS'conditions'
p941
I1
sS'available'
p942
I1
sS'unconscious'
p943
I1
sS'missing'
p944
I1
sS'sold'
p945
I2
sS'Dmitri'
p946
I1
sS'layouturi20161122politicstrumpgrandfathergermanyfriedrichindexhtmlheadlineTrumps'
p947
I1
sS'prospects'
p948
I1
sS'movers'
p949
I1
sS'annual'
p950
I2
sS'buzz'
p951
I1
sS'cnncomif'
p952
I1
sS'reasons'
p953
I1
sS'Panama'
p954
I1
sS'War'
p955
I1
sS'Disney'
p956
I1
sS'truedone'
p957
I1
sS'dielayouticonTypegalleryuri20160531sportgallerymigalooprivatesubmersibleyachtindexhtmlheadlineLuxury'
p958
I1
sS'political'
p959
I1
sS'due'
p960
I1
sS'Heroes'
p961
I2
sS'meeting'
p962
I1
sS'woke'
p963
I1
sS'cgompulsenetboomerang3ELNEXNZJHGJW9AGMCCCHF5K6BOOMRlstart'
p964
I1
sS'dialogue'
p965
I1
sS'raced'
p966
I1
sS'Saharathumbnailhttpi2cdncnncomcnnnextdamassets161107153758atlasmountainski1small11jpgdurationdescriptionMorocco'
p967
I1
sS'supportedheightsmall140medium120large130idieUnsupportedmessageTextThank'
p968
I1
sS'apiEndpointhttpsmailcarcnncomapiv1'
p969
I1
sS'else'
p970
I7
sS'reticence'
p971
I1
sS'racer'
p972
I1
sS'races'
p973
I1
sS'CNNnbspSansnbsptradenbspampnbspcopynbsp2016nbspCablenbspNewsnbspNetwork'
p974
I1
sS'Regions'
p975
I3
sS'look'
p976
I1
sS'straight'
p977
I1
sS'error'
p978
I4
sS'Hotels'
p979
I4
sS'leans'
p980
I1
sS'Hamlin'
p981
I1
sS'owes'
p982
I1
sS'Jennifer'
p983
I1
sS'increased'
p984
I1
sS'confirms'
p985
I1
sS'Melanias'
p986
I1
sS'Nation'
p987
I4
sS'CNNgo'
p988
I2
sS'virtually'
p989
I1
sS'httpgocnncomstreamCNNDemandLoadConfig'
p990
I1
sS'Movies'
p991
I2
sS'moving'
p992
I1
sS'recent'
p993
I2
sS'layouturi20160713opinions5disguiseshumantraffickerindexhtmlheadlineThe'
p994
I1
sS'elem'
p995
I1
sS'Moroccos'
p996
I1
sS'scpt'
p997
I1
sS'prevention'
p998
I1
sS'c000'
p999
I1
sS'falseenableEpicAds'
p1000
I1
sS'Internet'
p1001
I1
sS'injuries'
p1002
I1
sS'layouturi20161122worldjapantsunamitidalboreindexhtmlheadlineTsunami'
p1003
I1
sS'hostsearchwfacebookcom'
p1004
I1
sS'longArticlearticleLength6400enableAdLocktrueepicadIdadrectbtf01columnPosition1positiondesktopzonePosition1outbrainwidgetIdAR42shortArticleepicadIdadrectatf03columnPosition0positiondesktopzonePosition3CNNSectionConfig'
p1005
I1
sS'Football'
p1006
I2
sS'source'
p1007
I1
sS'homeland'
p1008
I1
sS'remaining'
p1009
I1
sS'CNNZones'
p1010
I1
sS'victims'
p1011
I1
sS'game'
p1012
I1
sS'falseenableHtml5Player'
p1013
I1
sS'UTCnameCNNtosAgreedoldCookieExpirationTue'
p1014
I1
sS'OK'
p1015
I4
sS'storiesoptIntelligencePID25413608valuesnameBreakingNewssubTitleBreaking'
p1016
I1
sS'shaped'
p1017
I1
sS'Dakota'
p1018
I1
sS'OS'
p1019
I1
sS'Submersible'
p1020
I1
sS'google'
p1021
I1
sS'DatenowthisbodyappendChildjsdocwrite'
p1022
I1
sS'Confirm'
p1023
I4
sS'economic'
p1024
I1
sS'Messenger'
p1025
I1
sS'newsletter'
p1026
I2
sS'ourselves'
p1027
I1
sS'NewsmailchimpIde95cdc16a9newsletterIDe95cdc16a9subImageicdncnncomcnnelementimg40subscriptionreliablesourcespngbuttonTextTake'
p1028
I1
sS'delivered'
p1029
I2
sS'c85600'
p1030
I1
sS'sneakers'
p1031
I1
sS'Aviation'
p1032
I2
sS'epic'
p1033
I1
sS'commentator'
p1034
I1
sS'trueerror'
p1035
I1
sS'run'
p1036
I1
sS'UpdescriptionOnce'
p1037
I1
sS'lose'
p1038
I1
sS'continuing'
p1039
I1
sS'agreement'
p1040
I1
sS'step'
p1041
I2
sS'tidal'
p1042
I2
sS'roundup'
p1043
I1
sS'cautious'
p1044
I1
sS'biggerthumbnailhttpi2cdncnncomcnnnextdamassets161123130904castlenighttimespectaular1small11jpgdurationdescriptionAre'
p1045
I1
sS'falsewarn'
p1046
I1
sS'Paralympic'
p1047
I1
sS'classics'
p1048
I1
sS'shiny'
p1049
I1
sS'EditionmailchimpIdtextbreakingnewsnewsletterIDtextbreakingnewsisGigyatruesubImageicdncnncomcnnelementimg40subscriptionbreakingnewsgraphicjpgbuttonTextClick'
p1050
I1
sS'affiliatescripthttpicdncnncomcnnewidgettripadvisoraffiliatelinkercnntravelaffiliatelinkerminjspartnerHotelsapiKeyE6E67BB01FD2467688ED25D5F5BC095AapiBaseUrlhttpapitripadvisorcomapipartner20locationservicePathservicestravelpartnerHotelswidgetapiKeyE6E67BB01FD2467688ED25D5F5BC095AcsshttpicdncnncomcnnewidgettripadvisorserviceinfocsscnntravelmapsmincssscripthttpicdncnncomcnnewidgettripadvisorserviceinfocnntravelmapsbundleminjsmapapiMapboxapiKeypkeyJ1IjoiY25uZGlnaXRhbCIsImEiOiJhMmI0NTFkNWMzNmMyODU4NTQyMjQzNWFkM2I5OGFkMCJ9S01hv9vVgIbHvy1QuAsoyQoptionsKeymapboxaccesstokenCNNUserMessageConfig'
p1051
I1
sS'Racing'
p1052
I1
sS'2016thumbnailhttpi2cdncnncomcnnnextdamassets161118160930arcaidimages9small11jpgdurationdescriptionA'
p1053
I1
sS'sectionentertainmentenableFooterfalseenableIncludetruehealthenableFooterfalseenableIncludetruehomepageenableFooterfalseenableIncludefalseintlhomepageenableFooterfalseenableIncludefalselivingenableFooterfalseenableIncludetruepoliticsenableFooterfalseenableIncludetruetechenableFooterfalseenableIncludetruetravelenableFooterfalseenableIncludetrueusenableFooterfalseenableIncludetrueworldenableFooterfalseenableIncludetrueCNNMarketsConfig'
p1054
I1
sS'layouturi20161123healththunderstormasthmaaustraliaindexhtmlheadlineThunderstorm'
p1055
I1
sS'sfstartptDatenow'
p1056
I1
sS'hoped'
p1057
I1
sS'hopes'
p1058
I1
sS'hair'
p1059
I1
sS'stepnameFive'
p1060
I1
sS'Twitter'
p1061
I1
sS'Africa'
p1062
I5
sS'Presidentelects'
p1063
I1
sS'Perspective'
p1064
I1
sS'faded'
p1065
I1
sS'slotCount'
p1066
I5
sS'freak'
p1067
I1
sS'Dont'
p1068
I1
sS'hrefhttpwwwcnncom20161116politicstrumptransitionjaredkushnerchrischristiereportedlyu003ca'
p1069
I1
sS'International'
p1070
I12
sS'CNNPageParamsadkeyCNNgetAdkey'
p1071
I1
sS'saidlayouturi20161122politicscharleskaisernwordbrookebaldwincnnnewsroomcnntvindexhtmlheadlineDont'
p1072
I1
sS'intrepid'
p1073
I1
sS'AllnbspRightsnbspReserved'
p1074
I1
sS'TV'
p1075
I15
sS'peace'
p1076
I1
sS'soninlaw'
p1077
I1
sS'falsebeaconTimeout'
p1078
I1
sS'draw'
p1079
I1
sS'users'
p1080
I1
sS'helping'
p1081
I2
sS'desert'
p1082
I1
sS'targetblanknegativeu003ca'
p1083
I1
sS'fighter'
p1084
I1
sS'Rosberg'
p1085
I2
sS'walked'
p1086
I1
sS'2007'
p1087
I1
sS'consensualthumbnailhttpi2cdncnncomcnnnextdamassets160819140250dubaiskylinesmall11jpgdurationdescriptionA'
p1088
I1
sS'fresh'
p1089
I1
sS'navigatorappVersionindexOfWindows'
p1090
I1
sS'particularly'
p1091
I1
sS'Wednesdaylayouturi20161123asiasouthkoreajapanmilitaryintelligenceindexhtmlheadlineS'
p1092
I1
sS'1toLowerCasewinedition'
p1093
I1
sS'oblivion\xe2\x80\x94becomes'
p1094
I1
sS'Business'
p1095
I4
sS'Means'
p1096
I1
sS'arid'
p1097
I1
sS'helps'
p1098
I1
sS'include'
p1099
I2
sS'falseenableShareButtons'
p1100
I1
sS'falseenableOutbrainOneTapToPlay'
p1101
I1
sS'Celebrity'
p1102
I2
sS'facebook'
p1103
I1
sS'Wheels'
p1104
I1
sS'frameborder0u003ciframenetworkcnnCNNWatchLiveCountries'
p1105
I1
sS'try'
p1106
I8
sS'race'
p1107
I3
sS'Partner'
p1108
I4
sS'Footage'
p1109
I1
sS'Select'
p1110
I1
sS'streetsthumbnailhttpi2cdncnncomcnnnextdamassets161025101703colombiasenderosdepaz011small11jpgdurationdescriptionAndy'
p1111
I1
sS'concluded'
p1112
I1
sS'pD1yc5zQgjmqr5'
p1113
I1
sS'video'
p1114
I1
sS'measureslength'
p1115
I1
sS'depression'
p1116
I1
sS'2016thumbnailhttpi2cdncnncomcnnnextdamassets161103145338mirabaudtimthomassmall11jpgdurationdescriptionTwenty'
p1117
I1
sS'giving'
p1118
I1
sS'access'
p1119
I2
sS'letterthumbnailhttpi2cdncnncomcnnnextdamassets161121075149popefrancissmall11jpgdurationdescriptionPope'
p1120
I1
sS'refreshsubscriptionErrorTextYour'
p1121
I2
sS'layouturivideossports20161118spcthecircuitformulaoneseasonrecapcomiccnnheadlineHamilton'
p1122
I1
sS'America'
p1123
I1
sS'Tibetan'
p1124
I1
sS'Straight'
p1125
I1
sS'exercise'
p1126
I1
sS'scenery'
p1127
I1
sS'doclocationprotocol'
p1128
I2
sS'ProvidermessageTextKeep'
p1129
I2
sS'delivering'
p1130
I1
sS'Popes'
p1131
I1
sS'presidencythumbnailhttpi2cdncnncomcnnnextdamassets160720003435rnctrumpchildrensmall11jpgdurationdescriptionThe'
p1132
I1
sS'httpzcdncnncomadscnnicnnihomepagejs'
p1133
I1
sS'focused'
p1134
I1
sS'windowperformancemarkheadEnd'
p1135
I1
sS'painfully'
p1136
I1
sS'everexpanding'
p1137
I1
sS'survivor'
p1138
I1
sS'trueCNNMailchimp'
p1139
I1
sS'beaconTimeout'
p1140
I1
sS'suggests'
p1141
I1
sS'resulting'
p1142
I1
sS'Arabic'
p1143
I4
sS'winClickTaleCreateDOMElement'
p1144
I2
sS'heart'
p1145
I2
sS'win'
p1146
I3
sS'Alleged'
p1147
I1
sS'private'
p1148
I1
sS'Safety'
p1149
I1
sS'Nico'
p1150
I1
sS'wineditionadTargetsrefdom'
p1151
I6
sS'Peskov'
p1152
I1
sS'NowdescriptionStay'
p1153
I1
sS'Sailing'
p1154
I2
sS'occurred'
p1155
I2
sS'trail'
p1156
I1
sS'recount'
p1157
I1
sS'women'
p1158
I1
sS'F1'
p1159
I1
sS'balls'
p1160
I1
sS'challenge'
p1161
I1
sS'Video'
p1162
I7
sS'fwProfile'
p1163
I1
sS'novalueset'
p1164
I1
sS'didnt'
p1165
I2
sS'trueenableOutbrain'
p1166
I1
sS'Feature'
p1167
I2
sS'Policy'
p1168
I1
sS'Party'
p1169
I1
sS'rape'
p1170
I2
sS'native'
p1171
I1
sS'hrefhttpstwittercomangelarye'
p1172
I1
sS'animal'
p1173
I1
sS'boomrifasjssrc'
p1174
I1
sS'cladding'
p1175
I1
sS'weaken'
p1176
I2
sS'Friends'
p1177
I1
sS'stock'
p1178
I1
sS'BOOMRcnntimeout'
p1179
I2
sS'farm'
p1180
I1
sS'fastdom'
p1181
I3
sS'highs'
p1182
I1
sS'wristwatch'
p1183
I1
sS'thunderstorm'
p1184
I1
sS'British'
p1185
I1
sS'thumbnailhttpi2cdncnncomcnnnextdamassets161122122018japanquaketsunamiwaves2small11jpgdurationdescriptionThe'
p1186
I1
sS'docclosewindow'
p1187
I1
sS'solidarity'
p1188
I1
sS'highlands'
p1189
I1
sS'u003ca'
p1190
I15
sS'Results'
p1191
I2
sS'scoop'
p1192
I1
sS'chief'
p1193
I1
sS'Weather'
p1194
I4
sS'Politics'
p1195
I3
sS'StorysubTitleFeed'
p1196
I1
sS'CNNcontentModel'
p1197
I1
sS'interpreted'
p1198
I1
sS'quake'
p1199
I1
sS'perfect'
p1200
I3
sS'degrees'
p1201
I2
sS'trueenableGigyaLogin'
p1202
I1
sS'2015'
p1203
I1
sS'covered'
p1204
I1
sS'2017'
p1205
I1
sS'2016'
p1206
I2
sS'claimedlayouturi20161122middleeastdubaibritishtouristrapeaffaircaseindexhtmlheadlineDubai'
p1207
I1
sS'Dubai'
p1208
I1
sS'crash'
p1209
I1
sS'autoScrollEnabledfalseautoScrollInterval8000pauseAutoscrollWhenInvisibletruepauseVideoWhenInvisibletrueresponsiveContainerConstraintsmobile480tablet800desktop2500scrollPausesJumbotronInterval5000CNNLazyLoad'
p1210
I1
sS'hands'
p1211
I1
sS'timethumbnailhttpi2cdncnncomcnnnextdamassets161120150745conjoinedtwinsseeeachother01small11jpegdurationdescriptionlayouturi20161122americascolombiafarcpeaceagreementindexhtmlheadlineEnd'
p1212
I1
sS'day'
p1213
I1
sS'presidential'
p1214
I1
sS'worlds'
p1215
I1
sS'Panamanian'
p1216
I1
sS'BOOMRplugins'
p1217
I1
sS'doesnt'
p1218
I1
sS'falseenableOmniture'
p1219
I1
sS'inbox'
p1220
I1
sS'Arts'
p1221
I2
sS'globe'
p1222
I1
sS'trueenableKrux'
p1223
I1
sS'victimslayouticonTypevideouri20160417asiavietnamesegirlschildbrideschinaindexhtmlheadlineGirls'
p1224
I1
sS'License'
p1225
I1
sS'entertainment'
p1226
I1
sS'More\xe2\x80\xa6'
p1227
I2
sS'China'
p1228
I4
sS'announced'
p1229
I1
sS'itnameBefore'
p1230
I1
sS'NewsletterssuccessIconicdncnncomcnnelementimg40subscriptioncheckmarkpngalsoLikeYou'
p1231
I1
sS'conflicts'
p1232
I1
sS'capTopics'
p1233
I1
sS'yard'
p1234
I1
sS'medalsthumbnailhttpi2cdncnncomcnnnextdamassets161109163118usainboltsocialsmall11jpgdurationdescriptionlayouturi20161122foodanddrinkmumbaicocktailbarsceneindexhtmlheadlineMumbais'
p1235
I1
sS'Lama'
p1236
I2
sS'scene'
p1237
I1
sS'mandatory'
p1238
I1
sS'start'
p1239
I2
sS'data'
p1240
I1
sS'fdmeasurefunction'
p1241
I1
sS'relations'
p1242
I1
sS'hrefprivacyrevised'
p1243
I1
sS'tourists'
p1244
I1
sS'Association'
p1245
I1
sS'environmental'
p1246
I1
sS'photograph'
p1247
I2
sS'futurethumbnailhttpi2cdncnncomcnnnextdamassets161107162920seeyourselfxleegriggssmall11jpgdurationdescriptionDo'
p1248
I1
sS'bed'
p1249
I1
sS'Edition'
p1250
I3
sS'visited'
p1251
I1
sS'classusermsgagree'
p1252
I1
sS'Richard'
p1253
I1
sS'crisislayouturi20161115healthweightlossballoonindexhtmlheadlineWeightloss'
p1254
I1
sS'partnership'
p1255
I2
sS'teenagers'
p1256
I2
sS'Finsbury'
p1257
I1
sS'layouturi20161123healththankfulnesswisdomprojectindexhtmlheadlineWhy'
p1258
I1
sS'Kremlin'
p1259
I1
sS'Middle'
p1260
I2
sS'BOOMRcnntimer'
p1261
I2
sS'battles'
p1262
I1
sS'wineditionadTargetsrefdomif'
p1263
I1
sS'Tennessee'
p1264
I1
sS'FridayCNNOptimizelyConfig'
p1265
I1
sS'trueenableZoneOutbrain'
p1266
I1
sS'worselayouturi20161123uschattanoogabuscrashwhatweknowindexhtmlheadlineBus'
p1267
I1
sS'01'
p1268
I3
sS'0if'
p1269
I1
sS'Mercedes'
p1270
I1
sS'CNNeventTimers'
p1271
I1
sS'Policyu003ca'
p1272
I1
sS'ProvidertroubleShootingTextIf'
p1273
I2
sS'BOOMRaddVar'
p1274
I1
sS'uri'
p1275
I1
sS'Donald'
p1276
I3
sS'\xe2\x80\x8bcenter'
p1277
I1
sS'wounded'
p1278
I1
sS'scptdocument'
p1279
I1
sS'Santos'
p1280
I1
sS'Paris'
p1281
I1
sS'agreed'
p1282
I1
sS'anyway'
p1283
I1
sS'bring'
p1284
I2
sS'fwNetworkId'
p1285
I1
sS'Innovation'
p1286
I2
sS'asylum'
p1287
I1
sS'knowledge'
p1288
I1
sS'titlethumbnailhttpi2cdncnncomcnnnextdamassets161118165452spcthecircuitformulaoneseasonrecapcomic00011802small11jpgduration0124descriptionlayouticonTypevideouri20161121africachinesefundedrailwaysinafricaindexhtmlheadlineTHIS'
p1289
I1
sS'railwaysthumbnailhttpi2cdncnncomcnnnextdamassets160429165844kenyarailwayviewsmall11jpgdurationdescriptionNear'
p1290
I1
sS'upthumbnailhttpi2cdncnncomcnnnextdamassets161123104442hollandexiclimatechangesmall11jpgdurationdescriptionIt'
p1291
I1
sS'specialstitleTextYour'
p1292
I2
sS'listened'
p1293
I1
sS'means'
p1294
I1
sS'photography'
p1295
I1
sS'inboxnameNightCapsubTitleYou\xe2\x80\x99ll'
p1296
I1
sS'joint'
p1297
I1
sS'aboutnameGreat'
p1298
I1
sS'Stories'
p1299
I1
sS'httpeditionicdncnncomabundles'
p1300
I1
sS'morningmailchimpId1d49e2a168newsletterID1d49e2a168subImagehttpicdncnncomcnnelementimg40subscriptionbeforethebelljpgbuttonTextAdd'
p1301
I1
sS'brain'
p1302
I1
sS'winperformancemarkslotElementIdslotCountif'
p1303
I1
sS'view'
p1304
I1
sS'jQueryfnonZonesAndDomReady'
p1305
I2
sS'oppressionlayouturi20161122opinionswhatpopefrancisabortiondecisionmeansschlumpfindexhtmlheadlineAnother'
p1306
I1
sS'national'
p1307
I1
sS'trueenableOneTapToPlay'
p1308
I1
sS'officials'
p1309
I1
sS'BOOMR'
p1310
I2
sS'packed'
p1311
I1
sS'Wisconsin'
p1312
I1
sS'closed'
p1313
I1
sS'Republican'
p1314
I1
sS'tsunamu003cai'
p1315
I1
sS'email'
p1316
I2
sS'Olaf'
p1317
I1
sS'ability'
p1318
I1
sS'key'
p1319
I2
sS'BOOMRpluginsGPT'
p1320
I1
sS'thank'
p1321
I1
sS'hits'
p1322
I1
sS'trueenableBreakingNews'
p1323
I1
sS'happeninglayouticonTypevideourivideosworld20161121princeharrytripsabroadhighlightssdgorigcnnheadlinePrince'
p1324
I1
sS'Woods'
p1325
I2
sS'Design'
p1326
I2
sS'wineditionadTargetscapTopics0'
p1327
I1
sS'invasive'
p1328
I1
sS'layouturi20161026americasandysteinorphanedstarfishindexhtmlheadlineSaving'
p1329
I1
sS'Music'
p1330
I2
sS'twoweek'
p1331
I1
sS'ProfiteddescriptionStart'
p1332
I1
sS'Phone'
p1333
I1
sS'1800CNNnewsLetterConfig'
p1334
I1
sS'seasoned'
p1335
I1
sS'httpdatacnncom1mspimmdatjQuerygetfetchUrl'
p1336
I1
sS'mcount'
p1337
I2
sS'monitor'
p1338
I1
sS'KnowingmailchimpIda4165679e3newsletterIDa4165679e3subImageicdncnncomcnnelementimg40subscriptionnightcapjpgbuttonTextPolitics'
p1339
I1
sS'Housethumbnailhttpi2cdncnncomcnnnextdamassets161122161452ellendegeneresmedaloffreedomsmall11jpgdurationdescriptionlayouturi20161123travelhongkongdisneylandexpansionindexhtmlheadlineFrozen'
p1340
I1
sS'initClickTalewin'
p1341
I1
sS'tense'
p1342
I1
sS'infestation'
p1343
I1
sS'c95680'
p1344
I1
sS'imperativelayouturi20161113healthmarijuanaweakensheartindexhtmlheadlineDoes'
p1345
I1
sS'homes'
p1346
I1
sS'abandoned'
p1347
I1
sS'trueenableVideoEndSlate'
p1348
I1
sS'2011'
p1349
I1
sS'Espa\xc3\xb1ol'
p1350
I3
sS'CNNUtilsexistswineditionadTargetscapTopics0'
p1351
I1
sS'Skiing'
p1352
I2
sS'site'
p1353
I2
sS'helped'
p1354
I1
sS'vs'
p1355
I1
sS'loadAllZonesLazy'
p1356
I1
sS'bucks'
p1357
I1
sS'capture'
p1358
I1
sS'falsetimeStamp'
p1359
I1
sS'balloon'
p1360
I1
sS'c105760'
p1361
I1
sS'CNNPageParamsadkey'
p1362
I1
sS'party'
p1363
I2
sS'AdChoices'
p1364
I1
sS'expirederrorSlatedefaultTextAn'
p1365
I2
sS'CNNgou003cbrSign'
p1366
I2
sS'null'
p1367
I1
sS'effect'
p1368
I1
sS'Manuel'
p1369
I1
sS'yearu003ca'
p1370
I1
sS'desktopsectioninternationalcontextsdefaultadSectionOverrideKeysconstarticlecarouselinpageeditioncnncommiscdefaultinpageconstarticlecarouselpagetopeditioncnncommiscdefaultt1constarticleinpageeditioncnncommiscdefaultinpageconstarticlepagetopeditioncnncommiscdefaultt1constvideoleafeditioncnncommiscdefaultt1adsectioneditioncnncommiscdefaultt1analyticsjsmdNewAPImetadataautostartfalsecvpContextexpansioncvpNetworkcnntestcvpProfileexpansionheight100iframeConfigiframeHosthttpeditioncnncomiframeHtmlelementwidgetvideovideoapihtmllatestiframeclienthtmlrelativeUrlHostslocalhostcnncom3000localhostnextcnncomlocalhostnextcnncom8080editiondevnextcnncomeditionenablenextcnncomeditionpoliticsnextcnncomeditionsweetnextcnncomeditionterranextcnncomeditionvideonextcnncomeditionetrainnextcnncomeditionstagenextcnncomeditionrefnextcnncomtypeembeddedwidth100africaadSectionOverrideKeysconstarticlecarouselinpageeditioncnncomafricainpageconstarticlecarouselpagetopeditioncnncomafricat1constarticleinpageeditioncnncomafricainpageconstarticlepagetopeditioncnncomafricat1constvideoleafeditioncnncomafricat1adsectioneditioncnncomafricamiscautostartfalseamericasadSectionOverrideKeysconstarticlecarouselinpageeditioncnncomlatinamericamaininpageconstarticlecarouselpagetopeditioncnncomlatinamericamaint1constarticleinpageeditioncnncomlatinamericamaininpageconstarticlepagetopeditioncnncomlatinamericamaint1constvideoleafeditioncnncomlatinamericamaint1adsectioneditioncnncomlatinamericamiscautostartfalsearchitectureadSectionOverrideKeysconstarticlecarouselinpageeditioncnncomstylearchitectureinpageconstarticlecarouselpagetopeditioncnncomstylearchitecturet1constarticleinpageeditioncnncomstylearchitectureinpageconstarticlepagetopeditioncnncomstylearchitecturet1constvideoleafeditioncnncomstylearchitecturet1adsectioneditioncnncomstylearchitecturemiscartsadSectionOverrideKeysconstarticlecarouselinpageeditioncnncomstyleartsinpageconstarticlecarouselpagetopeditioncnncomstyleartst1constarticleinpageeditioncnncomstyleartsinpageconstarticlepagetopeditioncnncomstyleartst1constvideoleafeditioncnncomstyleartst1adsectioneditioncnncomstyleartsmiscasiaadSectionOverrideKeysconstarticlecarouselinpageeditioncnncomasiamaininpageconstarticlecarouselpagetopeditioncnncomasiat1constarticleinpageeditioncnncomasiamaininpageconstarticlepagetopeditioncnncomasiat1constvideoleafeditioncnncomasiat1adsectioneditioncnncomasiamiscautostartfalseautosadSectionOverrideKeysconstarticlecarouselinpageeditioncnncomstyleautosinpageconstarticlecarouselpagetopeditioncnncomstyleautost1constarticleinpageeditioncnncomstyleautosinpageconstarticlepagetopeditioncnncomstyleautost1constvideoleafeditioncnncomstyleautost1adsectioneditioncnncomstyleautosmiscaviationadSectionOverrideKeysconstarticlecarouselinpageeditioncnncomtravelaviationinpageconstarticlecarouselpagetopeditioncnncomtravelaviationt1constarticleinpageeditioncnncomtravelaviationinpageconstarticlepagetopeditioncnncomtravelaviationt1constvideoleafeditioncnncomtravelaviationt1adsectioneditioncnncomtravelaviationmiscbestoftvadSectionOverrideKeysconstarticlecarouselinpageeditioncnncombestoftvinpageconstarticlecarouselpagetopeditioncnncombestoftvt1constarticleinpageeditioncnncombestoftvinpageconstarticlepagetopeditioncnncombestoftvt1constvideoleafeditioncnncombestoftvt1adsectioneditioncnncombestoftvmiscbusinessadSectionOverrideKeysconstarticlecarouselinpageeditioncnncomworldbusinessinpageconstarticlecarouselpagetopeditioncnncomworldbusinesst1constarticleinpageeditioncnncomworldbusinessinpageconstarticlepagetopeditioncnncomworldbusinesst1constvideoleafeditioncnncomworldbusinesst1adsectioneditioncnncomworldbusinessmisccnnmoneyadSectionOverrideKeysconstarticlecarouselinpageeditioncnncomcnnmoneyinpageconstarticlecarouselpagetopeditioncnncomcnnmoneyt1constarticleinpageeditioncnncomcnnmoneyinpageconstarticlepagetopeditioncnncomcnnmoneyt1constvideoleafeditioncnncomcnnmoneyt1adsectioneditioncnncomcnnmoneymisccrimeadSectionOverrideKeysconstarticlecarouselinpageeditioncnncomcrimeinpageconstarticlecarouselpagetopeditioncnncomcrimet1constarticleinpageeditioncnncomcrimeinpageconstarticlepagetopeditioncnncomcrimet1constvideoleafeditioncnncomcrimet1adsectioneditioncnncomcrimemiscdesignadSectionOverrideKeysconstarticlecarouselinpageeditioncnncomstyledesigninpageconstarticlecarouselpagetopeditioncnncomstyledesignt1constarticleinpageeditioncnncomstyledesigninpageconstarticlepagetopeditioncnncomstyledesignt1constvideoleafeditioncnncomstyledesignt1adsectioneditioncnncomstyledesignmiscentertainmentadSectionOverrideKeysconstarticlecarouselinpageeditioncnncomentertainmentinpageconstarticlecarouselpagetopeditioncnncomentertainmentt1constarticleinpageeditioncnncomentertainmentinpageconstarticlepagetopeditioncnncomentertainmentt1constvideoleafeditioncnncomentertainmentt1adsectioneditioncnncomentertainmentsectionmisceuropeadSectionOverrideKeysconstarticlecarouselinpageeditioncnncomeuropemaininpageconstarticlecarouselpagetopeditioncnncomeuropemaint1constarticleinpageeditioncnncomeuropemaininpageconstarticlepagetopeditioncnncomeuropemaint1constvideoleafeditioncnncomeuropemaint1adsectioneditioncnncomeuropemiscfashionadSectionOverrideKeysconstarticlecarouselinpageeditioncnncomstylefashioninpageconstarticlecarouselpagetopeditioncnncomstylefashiont1constarticleinpageeditioncnncomstylefashioninpageconstarticlepagetopeditioncnncomstylefashiont1constvideoleafeditioncnncomstylefashiont1adsectioneditioncnncomstylefashionmiscfoodanddrinkadSectionOverrideKeysconstarticlecarouselinpageeditioncnncomtravelfoodanddrinkinpageconstarticlecarouselpagetopeditioncnncomtravelfoodanddrinkt1constarticleinpageeditioncnncomtravelfoodanddrinkinpageconstarticlepagetopeditioncnncomtravelfoodanddrinkt1constvideoleafeditioncnncomtravelfoodanddrinkt1adsectioneditioncnncomtravelfoodanddrinkmiscfootballadSectionOverrideKeysconstarticlecarouselinpageeditioncnncomworldsportfootballinpageconstarticlecarouselpagetopeditioncnncomworldsportfootballt1constarticleinpageeditioncnncomworldsportfootballinpageconstarticlepagetopeditioncnncomworldsportfootballt1constvideoleafeditioncnncomworldsportfootballt1adsectioneditioncnncomworldsportfootballmiscgeneraladsectioneditioncnncomvideoscinemamodegeneraliframeadsectioneditioncnncomvideoscinemamodeanalyticsjsmdNewAPItypeiframegeneralnoadsautostartfalsecvpAdPolicyContextadFreegolfadSectionOverrideKeysconstarticlecarouselinpageeditioncnncomworldsportgolfinpageconstarticlecarouselpagetopeditioncnncomworldsportgolft1constarticleinpageeditioncnncomworldsportgolfinpageconstarticlepagetopeditioncnncomworldsportgolft1constvideoleafeditioncnncomworldsportgolft1adsectioneditioncnncomworldsportworldsportgolfmischealthadSectionOverrideKeysconstarticlecarouselinpageeditioncnncomhealthinpageconstarticlecarouselpagetopeditioncnncomhealtht1constarticleinpageeditioncnncomhealthinpageconstarticlepagetopeditioncnncomhealtht1constvideoleafeditioncnncomhealtht1adsectioneditioncnncomhealthsectionmischotelsadSectionOverrideKeysconstarticlecarouselinpageeditioncnncomtravelhotelsinpageconstarticlecarouselpagetopeditioncnncomtravelhotelst1constarticleinpageeditioncnncomtravelhotelsinpageconstarticlepagetopeditioncnncomtravelhotelst1constvideoleafeditioncnncomtravelhotelst1adsectioneditioncnncomtravelhotelsmiscjusticeadSectionOverrideKeysconstarticlecarouselinpageeditioncnncomjusticeinpageconstarticlecarouselpagetopeditioncnncomjusticet1constarticleinpageeditioncnncomjusticeinpageconstarticlepagetopeditioncnncomjusticet1constvideoleafeditioncnncomjusticet1adsectioneditioncnncomjusticemisclivingadSectionOverrideKeysconstarticlecarouselinpageeditioncnncomlivinginpageconstarticlecarouselpagetopeditioncnncomlivingt1constarticleinpageeditioncnncomlivinginpageconstarticlepagetopeditioncnncomlivingt1constvideoleafeditioncnncomlivingt1adsectioneditioncnncomlivingmiscluxuryadSectionOverrideKeysconstarticlecarouselinpageeditioncnncomstyleluxuryinpageconstarticlecarouselpagetopeditioncnncomstyleluxuryt1constarticleinpageeditioncnncomstyleluxuryinpageconstarticlepagetopeditioncnncomstyleluxuryt1constvideoleafeditioncnncomstyleluxuryt1adsectioneditioncnncomstyleluxurymiscmiddleeastadSectionOverrideKeysconstarticlecarouselinpageeditioncnncommiddleeastmaininpageconstarticlecarouselpagetopeditioncnncommiddleeastmaint1constarticleinpageeditioncnncommiddleeastmaininpageconstarticlepagetopeditioncnncommiddleeastmaint1constvideoleafeditioncnncommiddleeastmaint1adsectioneditioncnncommiddleeastmiscmotorsportadSectionOverrideKeysconstarticlecarouselinpageeditioncnncomworldsportmotorsportinpageconstarticlecarouselpagetopeditioncnncomworldsportmotorsportt1constarticleinpageeditioncnncomworldsportmotorsportinpageconstarticlepagetopeditioncnncomworldsportmotorsportt1constvideoleafeditioncnncomworldsportmotorsportt1adsectioneditioncnncomworldsportmotorsportmiscopinionadSectionOverrideKeysconstarticlecarouselinpageeditioncnncomopinioninpageconstarticlecarouselpagetopeditioncnncomopiniont1constarticleinpageeditioncnncomopinioninpageconstarticlepagetopeditioncnncomopiniont1constvideoleafeditioncnncomopiniont1adsectioneditioncnncomopinionsmiscopinionsadSectionOverrideKeysconstarticlecarouselinpageeditioncnncomopinioninpageconstarticlecarouselpagetopeditioncnncomopiniont1constarticleinpageeditioncnncomopinioninpageconstarticlepagetopeditioncnncomopiniont1constvideoleafeditioncnncomopiniont1adsectioneditioncnncomopinionsmiscpoliticsadSectionOverrideKeysconstarticlecarouselinpageeditioncnncompoliticsinpageconstarticlecarouselpagetopeditioncnncompoliticst1constarticleinpageeditioncnncompoliticsinpageconstarticlepagetopeditioncnncompoliticst1constvideoleafeditioncnncompoliticst1adsectioneditioncnncompoliticssectionmiscsailingadSectionOverrideKeysconstarticlecarouselinpageeditioncnncomwhatsonmainsailinpageconstarticlecarouselpagetopeditioncnncomwhatsonmainsailt1constarticleinpageeditioncnncomwhatsonmainsailinpageconstarticlepagetopeditioncnncomwhatsonmainsailt1constvideoleafeditioncnncomwhatsonmainsailt1adsectioneditioncnncomwhatsonmainsailmiscautostarttrueshowbizadSectionOverrideKeysconstarticlecarouselinpageeditioncnncomentertainmentinpageconstarticlecarouselpagetopeditioncnncomentertainmentt1constarticleinpageeditioncnncomentertainmentinpageconstarticlepagetopeditioncnncomentertainmentt1constvideoleafeditioncnncomentertainmentt1adsectioneditioncnncomentertainmentmiscskiingadSectionOverrideKeysconstarticlecarouselinpageeditioncnncomspecialreportsalpineedgeinpageconstarticlecarouselpagetopeditioncnncomspecialreportsalpineedget1constarticleinpageeditioncnncomspecialreportsalpineedgeinpageconstarticlepagetopeditioncnncomspecialreportsalpineedget1constvideoleafeditioncnncomspecialreportsalpineedget1adsectioneditioncnncomspecialreportsalpineedgemiscautostarttruespanishadSectionOverrideKeysconstarticlecarouselinpagecnnespanolcnncomspanishdefaultinpageconstarticlecarouselpagetopcnnespanolcnncomspanishdefaultt1constarticleinpagecnnespanolcnncomspanishdefaultinpageconstarticlepagetopcnnespanolcnncomspanishdefaultt1constvideoleafcnnespanolcnncomspanishdefaultt1adsectioncnnespanolcnncomspanishdefaultmiscautostarttruespanishshowsadSectionOverrideKeysconstarticlecarouselinpagecnnespanolcnncomspanishshowsinpageconstarticlecarouselpagetopcnnespanolcnncomspanishshowst1constarticleinpagecnnespanolcnncomspanishshowsinpageconstarticlepagetopcnnespanolcnncomspanishshowst1constvideoleafcnnespanolcnncomspanishshowst1adsectioncnnespanolcnncomspanishshowsmiscautostarttruespanishspecialsadSectionOverrideKeysconstarticlecarouselinpagecnnespanolcnncomspanishspecialsinpageconstarticlecarouselpagetopcnnespanolcnncomspanishspecialst1constarticleinpagecnnespanolcnncomspanishspecialsinpageconstarticlepagetopcnnespanolcnncomspanishspecialst1constvideoleafcnnespanolcnncomspanishspecialst1adsectioncnnespanolcnncomspanishspecialsmiscautostarttruesportadSectionOverrideKeysconstarticlecarouselinpageeditioncnncomusworldsportinpageconstarticlecarouselpagetopeditioncnncomusworldsportt1constarticleinpageeditioncnncomusworldsportinpageconstarticlepagetopeditioncnncomusworldsportt1constvideoleafeditioncnncomusworldsportt1adsectioneditioncnncomworldsportmiscstyleadSectionOverrideKeysconstarticlecarouselinpageeditioncnncomstylet1constarticlecarouselpagetopeditioncnncomstyleinpageconstarticleinpageeditioncnncomstyleinpageconstarticlepagetopeditioncnncomstylet1constvideoleafeditioncnncomstylet1adsectioneditioncnncomstylemisctechadSectionOverrideKeysconstarticlecarouselinpageeditioncnncomtechinpageconstarticlecarouselpagetopeditioncnncomtecht1constarticleinpageeditioncnncomtechinpageconstarticlepagetopeditioncnncomtecht1constvideoleafeditioncnncomtecht1adsectioneditioncnncomtechmisctechnologyadSectionOverrideKeysconstarticlecarouselinpageeditioncnncomtechnologyinpageconstarticlecarouselpagetopeditioncnncomtechnologyt1constarticleinpageeditioncnncomtechnologyinpageconstarticlepagetopeditioncnncomtechnologyt1constvideoleafeditioncnncomtechnologyt1adsectioneditioncnncomtechnologymiscautostartfalsetennisadSectionOverrideKeysconstarticlecarouselinpageeditioncnncomworldsporttennisinpageconstarticlecarouselpagetopeditioncnncomworldsporttennist1constarticleinpageeditioncnncomworldsporttennisinpageconstarticlepagetopeditioncnncomworldsporttennist1constvideoleafeditioncnncomworldsporttennist1adsectioneditioncnncomworldsporttennismisctopvideosadSectionOverrideKeysconstarticlecarouselinpageeditioncnncomtopvideosinpageconstarticlecarouselpagetopeditioncnncomtopvideost1constarticleinpageeditioncnncomtopvideosinpageconstarticlepagetopeditioncnncomtopvideost1constvideoleafeditioncnncomtopvideost1adsectioneditioncnncomtopvideosmisctraveladSectionOverrideKeysconstarticlecarouselinpageeditioncnncomtravelinpageconstarticlecarouselpagetopeditioncnncomtravelt1constarticleinpageeditioncnncomtravelinpageconstarticlepagetopeditioncnncomtravelt1constvideoleafeditioncnncomtravelt1adsectioneditioncnncomtravelmisctveprevadsectioncnncommainhomepagerightrailmutedallowAutoPausefalseanalyticsnoneautostartfalsecvpContexttveprevcvpProfileexpansionheight169width300usadSectionOverrideKeysconstarticlecarouselinpageeditioncnncomusinpageconstarticlecarouselpagetopeditioncnncomust1constarticleinpageeditioncnncomusinpageconstarticlepagetopeditioncnncomust1constvideoleafeditioncnncomust1adsectioneditioncnncomusmiscvideosadSectionOverrideKeysconstarticlecarouselinpageeditioncnncommiscdefaultinpageconstarticlecarouselpagetopeditioncnncommiscdefaultt1constarticleinpageeditioncnncommiscdefaultinpageconstarticlepagetopeditioncnncommiscdefaultt1constvideoleafeditioncnncommiscdefaultt1adsectioneditioncnncommainvideosectionwatchcnnadsectioncnncomvideoslivetvanalyticsjsmdTVEAPIcvpContextwatchcnncvpProfileexpansionweatheradSectionOverrideKeysconstarticlecarouselinpageeditioncnncomweatherinpageconstarticlecarouselpagetopeditioncnncomweathert1constarticleinpageeditioncnncomweatherinpageconstarticlepagetopeditioncnncomweathert1constvideoleafeditioncnncomweathert1adsectioneditioncnncomweathermiscautostarttrueworldadSectionOverrideKeysconstarticlecarouselinpageeditioncnncomworldinpageconstarticlecarouselpagetopeditioncnncomworldt1constarticleinpageeditioncnncomworldinpageconstarticlepagetopeditioncnncomworldt1constvideoleafeditioncnncomworldt1adsectioneditioncnncomworldmiscworldsportadSectionOverrideKeysconstarticlecarouselinpageeditioncnncomworldsportinpageconstarticlecarouselpagetopeditioncnncomworldsportt1constarticleinpageeditioncnncomworldsportinpageconstarticlepagetopeditioncnncomworldsportt1constvideoleafeditioncnncomworldsportt1adsectioneditioncnncomworldsportmiscmobilesectioninternationalcontextsafricaadsectioneditioncnncommobilemobilewebafricacvpContextexpansioncvpProfileexpansionamericasadsectioneditioncnncommobilemobilewebamericascvpContextexpansioncvpProfileexpansionarchitectureadsectioneditioncnncommobilemobilewebstylearchitectureartsadsectioneditioncnncommobilemobilewebstyleartsasiaadsectioneditioncnncommobilemobilewebasiacvpContextexpansioncvpProfileexpansionautosadsectioneditioncnncommobilemobilewebstyleautosaviationadsectioneditioncnncommobilemobilewebtravelaviationcvpContextexpansioncvpProfileexpansionbestoftvadsectioneditioncnncommobilemobilewebmaincvpContextexpansioncvpProfileexpansionbusinessadsectioneditioncnncommobilemobilewebworldbusinesscvpContextexpansioncvpProfileexpansioncnnmoneyadsectioncommobilemobilewebmaincvpContextexpansioncvpProfileexpansioncrimeadsectioncommobilemobilewebmaincvpContextexpansioncvpProfileexpansiondesignadsectioneditioncnncommobilemobilewebstyledesignentertainmentadsectioneditioncnncommobilemobilewebentertainmentcvpContextexpansioncvpProfileexpansioneuropeadsectioneditioncnncommobilemobilewebeuropecvpContextexpansioncvpProfileexpansionfashionadsectioneditioncnncommobilemobilewebstylefashionfoodanddrinkadsectioneditioncnncommobilemobilewebtravelfoodanddrinkcvpContextexpansioncvpProfileexpansionfootballadsectioneditioncnncommobilemobilewebworldsportfootballcvpContextexpansioncvpProfileexpansiongeneraliframeadsectioneditioncnncommobilemobilewebmiscdefaultanalyticsjsmdNewAPIautostartfalseheight100typeiframewidth100generalnoadscvpAdPolicyContextadFreecvpContextexpansioncvpProfileexpansiongolfadsectioneditioncnncommobilemobilewebworldsportgolfcvpContextexpansioncvpProfileexpansionhealthadsectioneditioncnncommobilemobilewebhealthcvpContextexpansioncvpProfileexpansionhomepageadsectioneditioncnncommobilemobilewebhomepagecvpContextexpansioncvpProfileexpansionhotelsadsectioneditioncnncommobilemobilewebtravelhotelscvpContextexpansioncvpProfileexpansionjusticeadsectioneditioncnncommobilemobilewebjusticecvpContextexpansioncvpNetworkcnntestcvpProfileexpansionlivingadsectioneditioncnncommobilemobileweblivingcvpContextexpansioncvpNetworkcnntestcvpProfileexpansionluxuryadsectioneditioncnncommobilemobilewebstyleluxurymiddleeastadsectioneditioncnncommobilemobilewebmiddleeastcvpContextexpansioncvpProfileexpansionmotorsportadsectioneditioncnncommobilemobilewebworldsportcvpContextexpansioncvpProfileexpansionopinionadsectioneditioncnncommobilemobilewebopinioncvpContextexpansioncvpNetworkcnntestcvpProfileexpansionopinionsadsectioneditioncnncommobilemobilewebopinioncvpContextexpansioncvpNetworkcnntestcvpProfileexpansionpoliticsadsectioneditioncnncommobilemobilewebpoliticscvpContextexpansioncvpNetworkcnntestcvpProfileexpansionsailingadsectioneditioncnncommobilemobilewebmainsailcvpContextexpansioncvpProfileexpansionshowbizadsectioneditioncnncommobilemobilewebentertainmentcvpContextexpansioncvpProfileexpansionskiingadsectioneditioncnncommobilemobilewebalpineedgecvpContextexpansioncvpProfileexpansionspanishadsectioncnnespanolcnncommobilemobilewebspanishdefaultcvpContextexpansioncvpProfileexpansionspanishshowsadSectionOverrideKeysconstvideoleafcnnespanolcnncommobilemobilewebspanishshowsadsectioncnnespanolcnncommobilemobilewebspanishshowscvpContextexpansioncvpProfileexpansionspanishspecialsadSectionOverrideKeysconstvideoleafcnnespanolcnncommobilemobilewebspanishspecialsadsectioncnnespanolcnncommobilemobilewebspanishspecialscvpContextexpansioncvpProfileexpansionsportadsectioneditioncnncommobilemobilewebworldsportcvpContextexpansioncvpProfileexpansionsportsadsectioneditioncnncommobilemobilewebworldsportcvpContextexpansioncvpProfileexpansionstyleadsectioneditioncnncommobilemobilewebstyletechadsectioneditioncnncommobilemobilewebtechnologycvpContextexpansioncvpNetworkcnntestcvpProfileexpansiontechnologyadsectioneditioncnncommobilemobilewebtechnologycvpContextexpansioncvpNetworkcnntestcvpProfileexpansiontennisadsectioneditioncnncommobilemobilewebworldsporttenniscvpContextexpansioncvpProfileexpansiontraveladsectioneditioncnncommobilemobilewebtravelcvpContextexpansioncvpNetworkcnntestcvpProfileexpansiontvadsectioneditioncnncommobilemobilewebmaincvpContextexpansioncvpNetworkcnntestcvpProfileexpansiontveprevadsectioneditioncnncommobilemobilewebmainallowAutoPausefalseanalyticsnonecvpProfileexpansionheight169width300usadsectioneditioncnncommobilemobilewebuscvpContextexpansioncvpProfileexpansionvideolandingadsectioncommobilemobilewebmiscdefaultcvpContextexpansioncvpProfileexpansionvideosadsectioneditioncnncommobilemobilewebvideosectioncvpContextexpansioncvpNetworkcnntestcvpProfileexpansionwatchcnnadsectioneditioncnncommobilemobilewebmiscdefaultanalyticsjsmdTVEAPIcvpContextwatchcnncvpProfileexpansionworldadsectioneditioncnncommobilemobilewebworldcvpContextexpansioncvpNetworkcnntestcvpProfileexpansionworldsportadsectioneditioncnncommobilemobilewebworldsportcvpContextexpansioncvpProfileexpansiondefaultadsectioneditioncnncommobilemobilewebmiscdefault'
p1371
I1
sS'photothumbnailhttpi2cdncnncomcnnnextdamassets160725105730freedomprojectphotodna2small11jpgdurationdescriptionlayouturivideosworld20160819cfpcanadaoutreachcnnheadlineElite'
p1372
I1
sS'fighting'
p1373
I1
sS'Sprint'
p1374
I1
sS'wreckage'
p1375
I1
sS'contenders'
p1376
I1
sS'Elsa'
p1377
I1
sS'moments'
p1378
I3
sS'granddad'
p1379
I1
sS'navigatorappVersionindexOfWP7'
p1380
I1
sS'Access'
p1381
I1
sS'tco'
p1382
I1
sS'Sunday'
p1383
I2
sS'showthumbnailhttpi2cdncnncomcnnnextdamassets161122155755brookebaldwincryingnwordintvthumb1small11jpgdurationdescriptionThe'
p1384
I1
sS'wineditionadTargetsadkey'
p1385
I2
sS'simple'
p1386
I1
sS'ski'
p1387
I2
sS'247nameInternationalBNsubTitleBreaking'
p1388
I1
sS'detailsdataset'
p1389
I1
sS'definitive'
p1390
I1
sS'government'
p1391
I1
sS'ClickTaleCreateDOMElementscriptscriptElementtype'
p1392
I1
sS'historic'
p1393
I1
sS'five'
p1394
I3
sS'instructionsu003cagoSmartLinkhttpcnnitgohelpLinkhttpeditioncnncomhelppersistentCtacobrandingTextIn'
p1395
I2
sS'prominent'
p1396
I1
sS'loss'
p1397
I1
sS'Fashion'
p1398
I2
sS'perpetual'
p1399
I1
sS'loses'
p1400
I1
sS'rituals'
p1401
I1
sS'journalist'
p1402
I1
sS'surgery'
p1403
I1
sS'windowdocumentdomain'
p1404
I1
sS'withcountdownTextPreview'
p1405
I2
sS'refugees'
p1406
I3
sS'page'
p1407
I1
sS'shed'
p1408
I1
sS'exploitationlayouturivideosworld20161122japanquaketsunamiwavessfcorigcnnheadlineJapan'
p1409
I1
sS'docreferrerreplacehttpswi'
p1410
I1
sS'0tryCount'
p1411
I1
sS'twitter'
p1412
I1
sS'motive'
p1413
I1
sS'httpcdnclicktalenetscrSrc'
p1414
I1
sS'Editor'
p1415
I1
sS'choosing'
p1416
I1
sS'home'
p1417
I1
sS'doccreateElementNS'
p1418
I1
sS'Mike'
p1419
I1
sS'trueenableVideoExperienceUnification'
p1420
I1
sS'analyticsjsmdNewAPImetadatacvpContextexpansioncvpProfileexpansionheight100iframeConfigiframeHosthttpeditioncnncomiframeHtmlelementwidgetvideovideoapihtmllatestiframeclienthtmlrelativeUrlHostslocalhostcnncom3000localhostnextcnncomlocalhostnextcnncom8080editiondevnextcnncomeditionenablenextcnncomeditionpoliticsnextcnncomeditionsweetnextcnncomeditionterranextcnncomeditionvideonextcnncomeditionetrainnextcnncomeditionstagenextcnncomeditionrefnextcnncomtypeembeddedwidth100CNNSocialConfig'
p1421
I1
sS'BOOMRsendBeaconiscomplete'
p1422
I1
sS'leader'
p1423
I1
sS'conference'
p1424
I1
sS'schedule'
p1425
I2
sS'Inside'
p1426
I2
sS'stellar'
p1427
I1
sS'host'
p1428
I2
sS'hostagethumbnailhttpi2cdncnncomcnnnextdamassets161122142728terrywaitesmall11jpgduration0207descriptionFormer'
p1429
I1
sS'stay'
p1430
I1
sS'rare'
p1431
I2
sS'column'
p1432
I1
sS'urged'
p1433
I3
sS'blessings'
p1434
I1
sS'Japan'
p1435
I3
sS'windowperformancemarkoptimizelyStart'
p1436
I1
sS'travelers'
p1437
I1
sS'Juan'
p1438
I2
sS'weather'
p1439
I1
sS'female'
p1440
I1
sS'rivals'
p1441
I1
sS'otherCNNgetRefDom'
p1442
I1
sS'nofontface'
p1443
I1
sS'biggest'
p1444
I1
sS'troubling'
p1445
I1
sS'function'
p1446
I24
sS'bus'
p1447
I3
sS'construction'
p1448
I1
sS'everybody\xe2\x80\x99s'
p1449
I1
sS'Africas'
p1450
I4
sS'count'
p1451
I1
sS'Ive'
p1452
I1
sS'Golf'
p1453
I2
sS'record'
p1454
I2
sS'below'
p1455
I2
sS'NowdescriptionIt\xe2\x80\x99s'
p1456
I1
sS'stories'
p1457
I1
sS'minutes'
p1458
I1
sS'trueenableVisualRevenueVideo'
p1459
I1
sS'recognize'
p1460
I1
sS'universal'
p1461
I1
sS'true0script'
p1462
I1
sS'registryFile'
p1463
I2
sS'Colombian'
p1464
I1
sS'Kushner'
p1465
I1
sS'c1451080CNNCNNXStreamUrl'
p1466
I1
sS'claiming'
p1467
I1
sS'details'
p1468
I1
sS'subscribezoneNameContent'
p1469
I1
sS'trueenableSafariPushAlerts'
p1470
I1
sS'11Mthumbnailhttpi2cdncnncomcnnnextdamassets161115103431patekwatchtease2small11jpgdurationdescriptionlayouturi20161117travelsloveniatravelguideindexhtmlheadlineWhere'
p1471
I1
sS'leaving'
p1472
I1
sS'South'
p1473
I2
sS'intlhomepage1zone1intlhomepage1zone2intlhomepage1zone3intlhomepage1zone4intlhomepage2zone1intlhomepage3zone1intlhomepage3zone3intlhomepage3zone4'
p1474
I1
sS'using'
p1475
I1
sS'Newsource'
p1476
I1
sS'Private'
p1477
I1
sS'launchthumbnailhttpi2cdncnncomcnnnextdamassets161110175941medogirlssmall11jpgdurationdescriptionTeenage'
p1478
I1
sS'Sleep'
p1479
I1
sS'integrates'
p1480
I1
s.