(dp0
S'Sell'
p1
I1
sS'Surges'
p2
I1
sS'founder'
p3
I1
sS'Offers'
p4
I1
sS'groundwork'
p5
I1
sS'copy'
p6
I1
sS'Night'
p7
I2
sS'Obamacare'
p8
I1
sS'MIKE'
p9
I1
sS'NYT'
p10
I1
sS'Winning'
p11
I1
sS'Covers'
p12
I1
sS'farms'
p13
I1
sS'Olympics'
p14
I1
sS'shot'
p15
I1
sS'Other'
p16
I1
sS'strictfunction'
p17
I1
sS'Today'
p18
I2
sS'Disconnecting'
p19
I1
sS'Supporting'
p20
I1
sS'Least'
p21
I1
sS'Sites\xe2\x80\x99'
p22
I1
sS'Using'
p23
I1
sS'Business'
p24
I5
sS'Fund'
p25
I1
sS'McGinnis'
p26
I1
sS'eorn0un1a0c0if1ulength4294967296u0foreit'
p27
I1
sS'0'
p28
I2
sS'init'
p29
I1
sS'Nytimescom'
p30
I1
sS'Restored'
p31
I1
sS'Not'
p32
I3
sS'Alabama\xe2\x80\x99s'
p33
I1
sS'Cases'
p34
I2
sS'Now'
p35
I4
sS'Day'
p36
I3
sS'Retreat'
p37
I2
sS'GrownUps'
p38
I1
sS'Celebrated'
p39
I1
sS'sitting'
p40
I1
sS'Interiors'
p41
I1
sS'Celebrity'
p42
I1
sS'Constitutional'
p43
I1
sS'Getaway'
p44
I2
sS'wave'
p45
I1
sS'Possibilities'
p46
I2
sS'Don\xe2\x80\x99t'
p47
I3
sS'Tech'
p48
I2
sS'affect'
p49
I1
sS'Repealed'
p50
I1
sS'Where'
p51
I2
sS'governments'
p52
I1
sS'Ambassador'
p53
I1
sS'Thomas'
p54
I2
sS'Protocol'
p55
I1
sS'Investors'
p56
I1
sS'SANTORA'
p57
I1
sS'Global'
p58
I2
sS'companies'
p59
I2
sS'Tragedy'
p60
I1
sS'BAZELON'
p61
I1
sS'Move'
p62
I1
sS'Patriots'
p63
I1
sS'150YearOld'
p64
I1
sS'team'
p65
I1
sS'Go'
p66
I4
sS'Turnaround'
p67
I1
sS'912'
p68
I1
sS'Debate'
p69
I2
sS'Our'
p70
I1
sS'Turkey'
p71
I1
sS'ScienceTake'
p72
I1
sS'spiritual'
p73
I1
sS'Raiders'
p74
I1
sS'force'
p75
I2
sS'OpEd'
p76
I5
sS'Nightmare'
p77
I1
sS'Terms'
p78
I2
sS'YOUTUBE'
p79
I1
sS'direct'
p80
I1
sS'Long'
p81
I3
sS'Actually'
p82
I2
sS'past'
p83
I1
sS'Favor'
p84
I1
sS'State'
p85
I1
sS'Version'
p86
I1
sS'video'
p87
I1
sS'SEAN'
p88
I1
sS'families'
p89
I1
sS'Sloane\xe2\x80\x99'
p90
I1
sS'Circle'
p91
I1
sS'LIPTAK'
p92
I1
sS'icfslhptdocumentcookiematch'
p93
I1
sS'Years'
p94
I1
sS'Down'
p95
I1
sS'ALAN'
p96
I1
sS'Normalizer'
p97
I1
sS'Spread'
p98
I1
sS'Jessica'
p99
I1
sS'Subscriptions'
p100
I5
sS'There'
p101
I2
sS'Train'
p102
I1
sS'assistance'
p103
I1
sS'Samsung'
p104
I1
sS'contributed'
p105
I1
sS'Rejected'
p106
I1
sS'ERIC'
p107
I1
sS'Delight'
p108
I1
sS'This'
p109
I4
sS'Wrong'
p110
I2
sS'Persian'
p111
I1
sS'Along'
p112
I2
sS'America'
p113
I2
sS'Ago'
p114
I1
sS'Grievances'
p115
I2
sS'Echoes'
p116
I1
sS'Made'
p117
I1
sS'Emma'
p118
I1
sS'Stepping'
p119
I1
sS'Presidency'
p120
I1
sS'Reince'
p121
I1
sS'Voyeur'
p122
I1
sS'Runway'
p123
I2
sS'EMBER'
p124
I1
sS'explore'
p125
I1
sS'busy'
p126
I1
sS'Green'
p127
I1
sS'Us'
p128
I4
sS'Speak'
p129
I1
sS'English'
p130
I1
sS'Briefing'
p131
I4
sS'Antonio'
p132
I1
sS'2'
p133
I1
sS'Surpass'
p134
I1
sS'Worse'
p135
I1
sS'search'
p136
I1
sS'generals'
p137
I1
sS'Chinese'
p138
I1
sS'Record'
p139
I1
sS'Index'
p140
I2
sS'Tuesday'
p141
I2
sS'BLINDER'
p142
I1
sS'Deaf'
p143
I1
sS'Back'
p144
I2
sS'reports'
p145
I1
sS'Pieces'
p146
I1
sS'airport'
p147
I1
sS'Toolmaking'
p148
I1
sS'social'
p149
I1
sS'Factory'
p150
I1
sS'military'
p151
I1
sS'history'
p152
I1
sS'navigation'
p153
I1
sS'Photography'
p154
I1
sS'JOANNE'
p155
I1
sS'Style'
p156
I5
sS'Said'
p157
I1
sS'retired'
p158
I2
sS'campaign'
p159
I1
sS'Privacy'
p160
I1
sS'Forever'
p161
I1
sS'Top'
p162
I1
sS'Multimedia'
p163
I2
sS'When'
p164
I1
sS'Three'
p165
I2
sS'Quiets'
p166
I1
sS'Contributing'
p167
I1
sS'Book'
p168
I1
sS'Health'
p169
I5
sS'HELENE'
p170
I1
sS'Opinion'
p171
I12
sS'MuseumReady'
p172
I1
sS'Donate'
p173
I1
sS'Writers'
p174
I1
sS'crisis'
p175
I2
sS'Europe'
p176
I1
sS'Core'
p177
I1
sS'Rohingya'
p178
I1
sS'Explorer'
p179
I1
sS'Dies'
p180
I2
sS'Sold'
p181
I1
sS'destination'
p182
I1
sS'getFlexData'
p183
I1
sS'Brightest'
p184
I1
sS'Lens'
p185
I2
sS'Automobiles'
p186
I2
sS'Big'
p187
I1
sS'That'
p188
I3
sS'Wedding'
p189
I1
sS'Intent'
p190
I1
sS'Dissatisfied'
p191
I1
sS'start'
p192
I1
sS'Jolt'
p193
I1
sS'Struggle'
p194
I1
sS'Music\xe2\x80\x99'
p195
I1
sS'Courtroom'
p196
I1
sS'Chastain\xe2\x80\x99s'
p197
I1
sS'Grumbling'
p198
I1
sS'journalists'
p199
I2
sS'Limits'
p200
I1
sS'Cockatoo'
p201
I1
sS'These'
p202
I3
sS'Editorials'
p203
I1
sS'Feast'
p204
I2
sS'Bars'
p205
I3
sS'Racism'
p206
I1
sS'Figaro'
p207
I1
sS'American'
p208
I4
sS'Theater'
p209
I2
sS'Population'
p210
I1
sS'Editorial'
p211
I4
sS'benefits'
p212
I1
sS'Bet'
p213
I1
sS'City\xe2\x80\x99s'
p214
I1
sS'Errorcant'
p215
I1
sS'Harlem'
p216
I1
sS'Celebrations'
p217
I1
sS'Feedback'
p218
I1
sS'Family'
p219
I1
sS'MARC'
p220
I1
sS'pursue'
p221
I1
sS'science'
p222
I1
sS'Cited'
p223
I1
sS'accomplishment'
p224
I1
sS'MARK'
p225
I1
sS'Klinsmann'
p226
I1
sS'Being'
p227
I1
sS'Video'
p228
I7
sS'Rebuke'
p229
I1
sS'Your'
p230
I5
sS'Out'
p231
I3
sS'Standing'
p232
I1
sS'Poem'
p233
I1
sS'Spectacles'
p234
I1
sS'Homes'
p235
I2
sS'Media'
p236
I1
sS'Called'
p237
I1
sS'LEARN'
p238
I1
sS'Feature'
p239
I3
sS'Policy'
p240
I2
sS'HAKIM'
p241
I1
sS'Digital'
p242
I3
sS'Anticipated'
p243
I1
sS'Party'
p244
I2
sS'standard'
p245
I1
sS'237'
p246
I1
sS'Mysteries'
p247
I1
sS'Meets'
p248
I1
sS'Dead\xe2\x80\x99'
p249
I1
sS'court'
p250
I1
sS'Watching'
p251
I1
sS'NHL'
p252
I1
sS'Who'
p253
I2
sS'Tell\xe2\x80\x99'
p254
I1
sS'1'
p255
I1
sS'Conspiracy'
p256
I2
sS'Deadly'
p257
I1
sS'Jack'
p258
I1
sS'Fall'
p259
I2
sS'LateNight'
p260
I1
sS'Whale'
p261
I1
sS'presidentelect'
p262
I2
sS'panic'
p263
I1
sS'Why'
p264
I1
sS'offshore'
p265
I1
sS'Martha\xe2\x80\x99s'
p266
I1
sS'A'
p267
I18
sS'Chattanooga'
p268
I2
sS'DANNY'
p269
I1
sS'Chat'
p270
I1
sS'141'
p271
I1
sS'farm'
p272
I1
sS'Fixes'
p273
I2
sS'earlier'
p274
I1
sS'Arrested'
p275
I1
sS'Can'
p276
I2
sS'Sale'
p277
I2
sS'Will'
p278
I4
sS'wrong'
p279
I1
sS'Figures'
p280
I1
sS'startTime'
p281
I2
sS'NYTDFlexTypespushtargetFT100000004781851typeFadingSlideShowdataoptionswidth375height265jsonphttpsstatic01nytcomslideshow20161121worldmiddleeastdisplacedslideshowjsonplinkhttpwwwnytimescom20161122worldmiddleeastiraqciviliansfleemosulhtmlphotosphotourlcreditadvanceddelay5limitjsonp0renditiontargetoverrideabbreviatecreditstrue'
p282
I1
sS'date'
p283
I1
sS'Syria'
p284
I2
sS'\xe2\x80\x98Bull\xe2\x80\x99'
p285
I1
sS'Keep'
p286
I2
sS'Corporate'
p287
I1
sS'Message'
p288
I2
sS'Fortress'
p289
I2
sS'PresidentElect'
p290
I1
sS'Leave'
p291
I1
sS'Line'
p292
I1
sS'I'
p293
I1
sS'Mexico'
p294
I1
sS'Civil'
p295
I2
sS'Series'
p296
I1
sS'lines'
p297
I1
sS'feels'
p298
I1
sS'One'
p299
I3
sS'NEWS'
p300
I1
sS'Art'
p301
I5
sS'chief'
p302
I1
sS'Tennessee'
p303
I1
sS'Unfairly'
p304
I2
sS'Politics'
p305
I4
sS'Truman'
p306
I2
sS'AMANDA'
p307
I1
sS'wind'
p308
I2
sS'JFK'
p309
I1
sS'What'
p310
I5
sS'Whiteness'
p311
I1
sS'help'
p312
I2
sS'Conversation'
p313
I1
sS'Astronomy\xe2\x80\x99'
p314
I1
sS'Stop'
p315
I1
sS'Breaking'
p316
I2
sS'Path'
p317
I1
sS'Rate'
p318
I1
sS'course'
p319
I2
sS'States'
p320
I1
sS'nyta2dtdocumentcookiematch'
p321
I1
sS'Bunker'
p322
I1
sS'Ordinary'
p323
I2
sS'Baldwin'
p324
I1
sS'Ross'
p325
I1
sS'Christie\xe2\x80\x99s'
p326
I3
sS'22'
p327
I1
sS'ET'
p328
I6
sS'Comes'
p329
I1
sS'Smarter'
p330
I1
sS'fix'
p331
I1
sS'Brooks'
p332
I2
sS'winning'
p333
I1
sS'Moving'
p334
I1
sS'Tensions'
p335
I1
sS'policy'
p336
I1
sS'World'
p337
I5
sS'2017'
p338
I1
sS'2016'
p339
I2
sS'2011'
p340
I1
sS'Columnists'
p341
I1
sS'Advertisers'
p342
I1
sS'NYTDNYTDNYTDAbrafunctiontuse'
p343
I1
sS'crash'
p344
I1
sS'Mobile'
p345
I3
sS'powerful'
p346
I1
sS'PONOMAREV'
p347
I1
sS'artfilled'
p348
I1
sS'Struggles'
p349
I2
sS'Two'
p350
I1
sS'\xe2\x80\x98Uniform'
p351
I1
sS'energizing'
p352
I1
sS'Footwear'
p353
I1
sS'odocumentgetElementsByTagNamescript0oparentNodeinsertBeforeto'
p354
I1
sS'Hosts'
p355
I1
sS'Era'
p356
I2
sS'Trumps'
p357
I1
sS'Social'
p358
I1
sS'false'
p359
I1
sS'Fight'
p360
I2
sS'Off'
p361
I1
sS'killed'
p362
I2
sS'VIA'
p363
I1
sS'Natural'
p364
I1
sS'San'
p365
I1
sS'masterminding'
p366
I1
sS'Skip'
p367
I2
sS'Lack'
p368
I1
sS'2f'
p369
I1
sS'Replica'
p370
I1
sS'215p'
p371
I1
sS'Artist'
p372
I1
sS'aggrieved'
p373
I1
sS'Ponders'
p374
I1
sS'Rates'
p375
I1
sS'827'
p376
I1
sS'Liberalism'
p377
I2
sS'Event'
p378
I1
sS'Rages'
p379
I2
sS'reactions'
p380
I1
sS'Arts'
p381
I6
sS'Elton'
p382
I1
sS'From'
p383
I6
sS'fired'
p384
I1
sS'Zone'
p385
I3
sS'Faith'
p386
I1
sS'nutreturn'
p387
I1
sS'idea'
p388
I1
sS'Legal'
p389
I2
sS'Sports'
p390
I7
sS'Damascus'
p391
I1
sS'88'
p392
I2
sS'Investigation'
p393
I1
sS'Angeles'
p394
I1
sS'organic'
p395
I1
sS'AIDS'
p396
I1
sS'Douthat'
p397
I1
sS'beyond'
p398
I1
sS'More'
p399
I7
sS'Medical'
p400
I1
sS'deals'
p401
I1
sS'etniftvar'
p402
I1
sS'COOPER'
p403
I1
sS'driving'
p404
I1
sS'aside'
p405
I1
sS'dismissal'
p406
I1
sS'Welcome'
p407
I1
sS'content'
p408
I1
sS'Dealings'
p409
I1
sS'laid'
p410
I1
sS'investigation'
p411
I1
sS'China'
p412
I2
sS'ADAM'
p413
I1
sS'Farage'
p414
I1
sS'Highs'
p415
I1
sS'Report'
p416
I2
sS'Set'
p417
I1
sS'supports'
p418
I1
sS'Outlines'
p419
I1
sS'Stage'
p420
I1
sS'Contraceptive'
p421
I1
sS'Journeys'
p422
I1
sS'Join'
p423
I1
sS'FourDay'
p424
I2
sS'Photography\xe2\x80\x99s'
p425
I1
sS'Rights'
p426
I2
sS'favored'
p427
I1
sS'Lines'
p428
I2
sS'Work'
p429
I1
sS'threatened'
p430
I1
sS'story'
p431
I2
sS'105th'
p432
I1
sS'Drama'
p433
I1
sS'Blessings'
p434
I1
sS'British'
p435
I2
sS'Telescope'
p436
I1
sS'Corrections'
p437
I1
sS'Meet'
p438
I1
sS'Worried'
p439
I1
sS'Doesn\xe2\x80\x99t'
p440
I1
sS'uacfsreturn'
p441
I1
sS'London\xe2\x80\x99s'
p442
I1
sS'Blind'
p443
I1
sS'advance'
p444
I1
sS'Poet'
p445
I1
sS'Shootings'
p446
I1
sS'Clinton'
p447
I4
sS'Contributors'
p448
I1
sS'Crash'
p449
I2
sS'Photo'
p450
I2
sS'transition'
p451
I1
sS'times'
p452
I1
sS'Dreamer\xe2\x80\x99s'
p453
I1
sS'Kellyanne'
p454
I1
sS'ehttpsdocumentlocationprotocoltsrcehttpshttpwwwgoogletagservicescomtagjsgptjsvar'
p455
I1
sS'tdocumentcreateElementscripttasync0ttypetextjavascriptvar'
p456
I1
sS'can\xe2\x80\x99t'
p457
I1
sS'ninitfunctionnrvar'
p458
I1
sS'Nonfiction'
p459
I1
sS'Campaign'
p460
I1
sS'David'
p461
I2
sS'Even'
p462
I2
sS'secondlargest'
p463
I1
sS'Scare'
p464
I1
sS'It\xe2\x80\x99s'
p465
I2
sS'Servants'
p466
I1
sS'Let\xe2\x80\x99s'
p467
I1
sS'Tables'
p468
I1
sS'viral'
p469
I1
sS'Review'
p470
I8
sS'Martin'
p471
I3
sS'Please'
p472
I1
sS'Going'
p473
I1
sS'Black'
p474
I1
sS'Obituaries'
p475
I2
sS'Goes'
p476
I1
sS'15000'
p477
I1
sS'POLITICS'
p478
I1
sS'Gilbert'
p479
I1
sS'fight'
p480
I1
sS'Ever'
p481
I1
sS'city'
p482
I1
sS'Tests'
p483
I1
sS'googletaggoogletaggoogletagcmdgoogletagcmdfunctionvar'
p484
I1
sS'Monday'
p485
I1
sS'Investigations'
p486
I1
sS'Farm'
p487
I1
sS'top'
p488
I1
sS'Effect'
p489
I1
sS'Notebook'
p490
I1
sS'Taking'
p491
I1
sS'Priebus'
p492
I1
sS'Press'
p493
I2
sS'limitFabrikSavemoreFollowSuggestionsunfollowCommentsallTheEmphasesvideoVHSCovervideoVHSHomepageCovervideoVHSHomepageNewControlsvideoVHSNewControlsvideoVHSEmbeddedOnlyadditionalOpinionRegionshpViewabilityfreeTrialhpPrototypeuseCollectionApiForWellenableFlexFrameAdsweatherLocationfabrikWebsocketsOnlyNYTExperimenthpRealEstateAdjitterbugupdatedVideoPromoSmallvideoEmbed360PersonalizationApiUpdateglobalBriefingsremoveInternationalEditionclientSideABRAgeoTrendingabraOverrideVersion'
p494
I1
sS'JOHN'
p495
I1
sS'Dressing'
p496
I1
sS'Create'
p497
I1
sS'shifted'
p498
I1
sS'Cadenza'
p499
I1
sS'Search'
p500
I5
sS'dataoptionswidth375height265jsonphttpsstatic01nytcomslideshow20161121worldmiddleeastdisplacedslideshowjsonplinkhttpwwwnytimescom20161122worldmiddleeastiraqciviliansfleemosulhtmlphotosphotourlcreditadvanceddelay5limitjsonp0renditiontargetoverrideabbreviatecreditstrue'
p501
I1
sS'Contact'
p502
I1
sS'Contributed'
p503
I1
sS'App'
p504
I1
sS'Patricia'
p505
I1
sS'Date'
p506
I1
sS'Neediest'
p507
I2
sS'Wheels'
p508
I1
sS'Rash'
p509
I1
sS'review'
p510
I1
sS'Deportation'
p511
I1
sS'Letters'
p512
I1
sS'Problem'
p513
I1
sS'Critics'
p514
I2
sS'Page'
p515
I1
sS'History'
p516
I2
sS'KC'
p517
I1
sS'Leonhardt'
p518
I1
sS'Iraq'
p519
I3
sS'Love'
p520
I2
sS'\xe2\x80\x98Don\xe2\x80\x99t'
p521
I1
sS'Classical'
p522
I1
sS'surrounding'
p523
I1
sS'Puzzle'
p524
I2
sS'country\xe2\x80\x99s'
p525
I1
sS'Edition'
p526
I1
sS'Officials'
p527
I2
sS'risks'
p528
I1
sS'Single'
p529
I1
sS'Sound'
p530
I1
sS'Picture'
p531
I2
sS'Advertise'
p532
I1
sS'659'
p533
I1
sS'Season'
p534
I1
sS'Is'
p535
I11
sS'Aggression'
p536
I1
sS'browser'
p537
I1
sS'accusing'
p538
I1
sS'Court'
p539
I1
sS'Todayrsquos'
p540
I2
sS'49yearold'
p541
I1
sS'27n4sff'
p542
I1
sS'Suit'
p543
I1
sS'Jobs\xe2\x80\x99'
p544
I1
sS'Philadelphia'
p545
I3
sS'Results'
p546
I1
sS'SERGEY'
p547
I1
sS'conspiracy'
p548
I1
sS'Call'
p549
I1
sS'tables'
p550
I1
sS'Forward\xe2\x80\x99'
p551
I1
sS'Dozens'
p552
I1
sS'seek'
p553
I1
sS'Implant'
p554
I1
sS'car'
p555
I1
sS'Independent'
p556
I1
sS'Them'
p557
I2
sS'HESS'
p558
I1
sS'Flight'
p559
I2
sS'dishes'
p560
I1
sS'Player'
p561
I2
sS'Food'
p562
I5
sS'Sections'
p563
I4
sS'\xe2\x80\x9cIf'
p564
I1
sS'After'
p565
I2
sS'officers'
p566
I2
sS'Jobs'
p567
I2
sS'Graduates'
p568
I1
sS'Photos'
p569
I1
sS'emphasis'
p570
I1
sS'concerns'
p571
I1
sS'forces'
p572
I1
sS'bus'
p573
I1
sS'Ask'
p574
I1
sS'battled'
p575
I1
sS'Kia'
p576
I1
sS'With'
p577
I8
sS'ChildTrafficking'
p578
I1
sS'45th'
p579
I1
sS'Transition'
p580
I2
sS'P\xc3\x89REZPE\xc3\x91A'
p581
I1
sS'pretzels'
p582
I1
sS'Covering'
p583
I1
sS'Topics'
p584
I1
sS'\xe2\x80\x98FurryLa'
p585
I1
sS'Blogs'
p586
I1
sS'Journalism'
p587
I2
sS'ZERNIKE'
p588
I1
sS'Has'
p589
I1
sS'WOOLFE'
p590
I1
sS'assault'
p591
I1
sS'Despair'
p592
I1
sS'Brutal'
p593
I1
sS'Iowa'
p594
I1
sS'The'
p595
I36
sS'Election'
p596
I1
sS'GOP'
p597
I1
sS'police'
p598
I1
sS'windowmagnumwriteLogosmall'
p599
I1
sS'NYTDFlexTypes'
p600
I2
sS'Beyond'
p601
I1
sS'Leroy'
p602
I1
sS'Micklethwait'
p603
I1
sS'WINES'
p604
I1
sS'Redistricting'
p605
I1
sS'Tools'
p606
I1
sS'TARA'
p607
I1
sS'ab72ifuthrow'
p608
I1
sS'Couldn\xe2\x80\x99t'
p609
I2
sS'Subscribe'
p610
I5
sS'Donald'
p611
I7
sS'NYC'
p612
I3
sS'talk'
p613
I2
sS'Want'
p614
I3
sS'Strip'
p615
I1
sS'Home'
p616
I4
sS'Dementia'
p617
I1
sS'Take'
p618
I1
sS'Its'
p619
I4
sS'Viewed'
p620
I1
sS'Victory'
p621
I2
sS'detective'
p622
I1
sS'Whose'
p623
I1
sS'Trending'
p624
I1
sS'golf'
p625
I2
sS'Stands'
p626
I1
sS'Reinstates'
p627
I1
sS'text'
p628
I1
sS'agreed'
p629
I1
sS'celebrities'
p630
I1
sS'MultimediaPhotos'
p631
I1
sS'Chemical'
p632
I3
sS'Loading'
p633
I2
sS'businesses'
p634
I1
sS'Opposed'
p635
I1
sS'Recommend'
p636
I1
sS'Test'
p637
I1
sS'Contemplate'
p638
I1
sS'Pizzeria'
p639
I1
sS'KATE'
p640
I1
sS'siteindexbrandinglink'
p641
I1
sS'ground'
p642
I1
sS'giant'
p643
I1
sS'upgrade'
p644
I1
sS'RICHARD'
p645
I1
sS'cataloging'
p646
I1
sS'Brand'
p647
I1
sS'Republicans'
p648
I2
sS'Tries'
p649
I1
sS'Opinionator'
p650
I1
sS'Diary'
p651
I1
sS'York'
p652
I12
sS'httpsa1nytcomassetshomepage20161122095456imagesfoundationlogos'
p653
I1
sS'ntvar'
p654
I1
sS'posted'
p655
I1
sS'BudgetMinded'
p656
I1
sS'Account'
p657
I1
sS'Choices'
p658
I1
sS'ZACHARY'
p659
I1
sS'Thanksgiving'
p660
I3
sS'advocates'
p661
I1
sS'Books'
p662
I5
sS'Magazine'
p663
I9
sS'12'
p664
I1
sS'Quick'
p665
I1
sS'15'
p666
I1
sS'Capote'
p667
I2
sS'Trump\xe2\x80\x99s'
p668
I3
sS'69'
p669
I1
sS'\xe2\x80\x98Miss'
p670
I1
sS'Upshot'
p671
I1
sS'Find'
p672
I3
sS'Protests'
p673
I1
sS'Help'
p674
I1
sS'Greatest'
p675
I1
sS'covering'
p676
I1
sS'Felix'
p677
I1
sS'Marijuana'
p678
I3
sS'yield'
p679
I1
sS'miles'
p680
I1
sS'shots'
p681
I1
sS'worries'
p682
I2
sS'Furia\xe2\x80\x99'
p683
I1
sS'Seen'
p684
I1
sS'\xe2\x80\x98Absolutely'
p685
I1
sS'view'
p686
I1
sS'Grumblings'
p687
I1
sS'Snag'
p688
I1
sS'For'
p689
I1
sS'Friedman\xe2\x80\x99s'
p690
I3
sS'national'
p691
I1
sS'Spectrum'
p692
I1
sS'Chaos'
p693
I1
sS'blurred'
p694
I1
sS'Vineyard'
p695
I1
sS'Recommended'
p696
I1
sS'officials'
p697
I1
sS'Passion'
p698
I2
sS'Pursuing'
p699
I1
sS'close'
p700
I1
sS'Violations'
p701
I1
sS'John'
p702
I2
sS'encouraged'
p703
I1
sS'Wisconsin'
p704
I3
sS'Gift'
p705
I1
sS'PT'
p706
I1
sS'Snapchat'
p707
I1
sS'311518500249en1on2ern3iueor341275144ueoeror882459459i15356943890f20te'
p708
I1
sS'speed'
p709
I1
sS'partisan'
p710
I1
sS'Park'
p711
I1
sS'Choice'
p712
I2
sS'Season\xe2\x80\x99s'
p713
I1
sS'Favored'
p714
I1
sS'Parr'
p715
I1
sS'\xe2\x80\x98Ate'
p716
I1
sS'LANDLER'
p717
I1
sS'Than'
p718
I1
sS'360'
p719
I2
sS'\xe2\x80\x98This'
p720
I1
sS'preserve'
p721
I1
sS'redistricting'
p722
I1
sS'College'
p723
I1
sS'jobs'
p724
I1
sS'Target'
p725
I2
sS'nationwide'
p726
I1
sS'Settings'
p727
I1
sS'Could'
p728
I1
sS'Fake'
p729
I2
sS'Today\xe2\x80\x99s'
p730
I1
sS'Against'
p731
I2
sS'His'
p732
I1
sS'opposition'
p733
I2
sS'news'
p734
I1
sS'Weird'
p735
I1
sS'AltRight'
p736
I1
sS'Among'
p737
I1
sS'climate'
p738
I1
sS'Appease'
p739
I1
sS'Service'
p740
I1
sS'Dance'
p741
I1
sS'raquo'
p742
I34
sS'Auto'
p743
I1
sS'according'
p744
I1
sS'foreign'
p745
I2
sS'KAUFMAN'
p746
I1
sS'Far'
p747
I1
sS'Farms'
p748
I1
sS'Target\xe2\x80\x99'
p749
I1
sS'Design'
p750
I4
sS'Ad'
p751
I1
sS'Manage'
p752
I1
sS'Classifieds'
p753
I1
sS'Syrian'
p754
I1
sS'eyesight'
p755
I1
sS'McPHATE'
p756
I1
sS'twiceifarudforddecodeURIComponentdspliti0i'
p757
I1
sS'SCHWARTZ'
p758
I1
sS'Rejects'
p759
I1
sS'Travel'
p760
I4
sS'Mr'
p761
I4
sS'Ford'
p762
I1
sS'Bathroom'
p763
I1
sS'Tennis'
p764
I1
sS'Los'
p765
I1
sS'Evoked'
p766
I2
sS'Coloring'
p767
I1
sS'Music'
p768
I2
sS'Speeding'
p769
I2
sS'BuchananAgence'
p770
I1
sS'\xe2\x80\x9cwell'
p771
I1
sS'Was'
p772
I2
sS'War'
p773
I6
sS'lies'
p774
I1
sS'speak'
p775
I1
sS'Urge'
p776
I1
sS'Play'
p777
I2
sS'videos'
p778
I1
sS'Cruz'
p779
I1
sS'Carr'
p780
I1
sS'Bus'
p781
I2
sS'create'
p782
I1
sS'political'
p783
I1
sS'Conwill'
p784
I1
sS'Phone'
p785
I1
sS'Hillary'
p786
I2
sS'California'
p787
I2
sS'Sessions\xe2\x80\x99'
p788
I1
sS'Groups'
p789
I1
sS'Services'
p790
I1
sS'1030'
p791
I1
sS'thing\xe2\x80\x9d'
p792
I1
sS'Just'
p793
I3
sS'Card'
p794
I1
sS'Doping'
p795
I1
sS'Exxon'
p796
I2
sS'controlled'
p797
I1
sS'Reinventing'
p798
I1
sS'Head'
p799
I2
sS'fire'
p800
I1
sS'gas'
p801
I1
sS'Vegas'
p802
I1
sS'Trevor'
p803
I2
sS'Sites'
p804
I1
sS'Districts'
p805
I1
sS'Credit'
p806
I1
sS'Listings'
p807
I1
sS'Late\xe2\x80\x9d'
p808
I1
sS'Wordplay'
p809
I1
sS'Map'
p810
I1
sS'input'
p811
I1
sS'Selling'
p812
I1
sS'Drops'
p813
I2
sS'Navigation'
p814
I7
sS'weeks'
p815
I1
sS'holiday'
p816
I1
sS'Accuses'
p817
I2
sS'presidency'
p818
I1
sS'Conway'
p819
I1
sS'Into'
p820
I6
sS'Canceling'
p821
I1
sS'Espa\xc3\xb1ol'
p822
I1
sS'upending'
p823
I1
sS'governor'
p824
I1
sS'Kutteles'
p825
I1
sS'near'
p826
I1
sS'Accused'
p827
I1
sS'Pulling'
p828
I1
sS'nn1nullfunction'
p829
I1
sS'behavior'
p830
I1
sS'Inquiry'
p831
I1
sS'Cold'
p832
I1
sS'Wait'
p833
I1
sS'Spreading'
p834
I1
sS'MORE'
p835
I3
sS'Destination'
p836
I1
sS'City'
p837
I1
sS'30'
p838
I1
sS'Sconces'
p839
I1
sS'Museum'
p840
I1
sS'\xe2\x80\x98Marathon'
p841
I1
sS'Shivers'
p842
I2
sS'encouragement'
p843
I1
sS'Focus'
p844
I1
sS'couples'
p845
I1
sS'Maestro'
p846
I1
sS'continues'
p847
I1
sS'vs'
p848
I2
sS'experts'
p849
I1
sS'Dead'
p850
I5
sS'Clues'
p851
I1
sS'return'
p852
I1
sS'You'
p853
I2
sS'leaving'
p854
I1
sS'Friendly'
p855
I1
sS'Hope'
p856
I1
sS'Soccer'
p857
I1
sS'ARANGO'
p858
I1
sS'Around'
p859
I1
sS'media'
p860
I2
sS'workingclass'
p861
I1
sS'administration'
p862
I1
sS'NYTimescom'
p863
I2
sS'Television'
p864
I3
sS'9'
p865
I1
sS'President'
p866
I1
sS'struggling'
p867
I1
sS'FrancePresse'
p868
I1
sS'NYTDNYTD'
p869
I1
sS'PARKERPOPE'
p870
I1
sS'Classroom'
p871
I1
sS'r0a0c0ouaife'
p872
I1
sS'About'
p873
I2
sS'oil'
p874
I1
sS'Room'
p875
I2
sS'inadvertently'
p876
I1
sS'Then'
p877
I1
sS'Myanmar\xe2\x80\x99s'
p878
I1
sS'Maybe'
p879
I2
sS'Clear'
p880
I1
sS'Immigrants'
p881
I1
sS'driver'
p882
I1
sS'Scenes'
p883
I2
sS'II'
p884
I1
sS'Movies'
p885
I5
sS'Focuses'
p886
I1
sS'IN'
p887
I1
sS'Pampering'
p888
I1
sS'indigenous'
p889
I1
sS'Recap'
p890
I1
sS'SHEAR'
p891
I1
sS'Houston'
p892
I1
sS'gerrymandering'
p893
I1
sS'task'
p894
I1
sS'Says'
p895
I3
sS'Geneva'
p896
I1
sS'Technology'
p897
I3
sS'l0var'
p898
I1
sS'Sessions'
p899
I1
sS'Between'
p900
I1
sS'It'
p901
I3
sS'Autism'
p902
I1
sS'Challenges'
p903
I1
sS'Track'
p904
I1
sS'Generals'
p905
I1
sS'Rarely'
p906
I1
sS'Rent'
p907
I1
sS'Have'
p908
I2
sS'In'
p909
I5
sS'five'
p910
I1
sS'Mobil'
p911
I2
sS'researchers'
p912
I1
sS'meet'
p913
I1
sS'Living'
p914
I2
sS'Errors'
p915
I1
sS'traditions'
p916
I1
sS'proposed'
p917
I1
sS'Reach'
p918
I1
sS'unconstitutional'
p919
I1
sS'Editors'
p920
I1
sS'actress'
p921
I1
sS'Conservative'
p922
I3
sS'TIM'
p923
I1
sS'Sunday'
p924
I2
sS'Death'
p925
I1
sS'Dropping'
p926
I1
sS'Internet'
p927
I1
sS'\xe2\x80\x98SNL\xe2\x80\x99'
p928
I1
sS'intensifying'
p929
I1
sS'Might'
p930
I2
sS'Log'
p931
I1
sS'Be'
p932
I10
sS'Here\xe2\x80\x99s'
p933
I1
sS'family'
p934
I1
sS'Campus'
p935
I2
sS'Obits'
p936
I3
sS'Company'
p937
I1
sS'Friday'
p938
I1
sS'YouTube'
p939
I1
sS'day'
p940
I1
sS'Applications'
p941
I1
sS'book'
p942
I2
sS'Getty'
p943
I1
sS'Goals'
p944
I1
sS'SYDNEY'
p945
I1
sS'Front'
p946
I2
sS'News'
p947
I7
sS'By'
p948
I20
sS'Roller'
p949
I1
sS'Debt'
p950
I1
sS'Great'
p951
I1
sS'On'
p952
I6
sS'Hits'
p953
I1
sS'Initial'
p954
I1
sS'D'
p955
I1
sS'rules'
p956
I1
sS'Island'
p957
I1
sS'Grandmother\xe2\x80\x99s'
p958
I1
sS'online'
p959
I1
sS'To'
p960
I1
sS'Morning'
p961
I1
sS'Try'
p962
I2
sS'matters'
p963
I2
sS'Below'
p964
I1
sS'Fashion'
p965
I4
sS'Limit'
p966
I1
sS'T'
p967
I3
sS'Threat'
p968
I2
sS'Scorsese'
p969
I2
sS'using'
p970
I1
sS'Their'
p971
I1
sS'Care'
p972
I1
sS'reap'
p973
I1
sS'Wind'
p974
I2
sS'Trump'
p975
I27
sS'Note'
p976
I1
sS'ALFANO'
p977
I1
sS'OK'
p978
I2
sS'Elmo'
p979
I1
sS'retake'
p980
I1
sS'brace'
p981
I1
sS'Kindle'
p982
I1
sS'Show'
p983
I1
sS'journalism'
p984
I1
sS'50'
p985
I1
sS'\xe2\x80\x98Among'
p986
I1
sS'52'
p987
I1
sS'Returns'
p988
I1
sS'Turn'
p989
I1
sS'continue'
p990
I1
sS'London'
p991
I1
sS'Are'
p992
I4
sS'night'
p993
I1
sS'\xe4\xb8\xad\xe6\x96\x87'
p994
I1
sS'Las'
p995
I1
sS'soft'
p996
I1
sS'essential'
p997
I1
sS'hour\xe2\x80\x9d'
p998
I1
sS'Before'
p999
I4
sS'What\xe2\x80\x99s'
p1000
I1
sS'Case'
p1001
I1
sS'Little'
p1002
I2
sS'Bombing\xe2\x80\x99'
p1003
I1
sS'Through'
p1004
I2
sS'Gulf'
p1005
I1
sS'people'
p1006
I1
sS'\xe2\x80\x98Wealth'
p1007
I1
sS'67'
p1008
I1
sS'Fears'
p1009
I1
sS'Arms'
p1010
I2
sS'authority'
p1011
I1
sS'promo1'
p1012
I1
sS'Crossword'
p1013
I4
sS'Calling'
p1014
I1
sS'promo2'
p1015
I1
sS'Andy'
p1016
I1
sS'Editor'
p1017
I2
sS'table'
p1018
I1
sS'New'
p1019
I20
sS'Bayer\xe2\x80\x99s'
p1020
I1
sS'employment'
p1021
I1
sS'Email'
p1022
I1
sS'provided'
p1023
I1
sS'Life'
p1024
I4
sS'Recover'
p1025
I1
sS'separate'
p1026
I1
sS'Rockefellers'
p1027
I2
sS'legal'
p1028
I1
sS'Events'
p1029
I3
sS'Virus'
p1030
I1
sS'Warning'
p1031
I1
sS'Facebook'
p1032
I2
sS'Filled'
p1033
I1
sS'Chris'
p1034
I2
sS'deteriorated'
p1035
I1
sS'Gives'
p1036
I1
sS'Cooking'
p1037
I1
sS'Bryant'
p1038
I1
sS'He'
p1039
I1
sS'Begins'
p1040
I1
sS'SuperStylists'
p1041
I1
sS'School'
p1042
I5
sS'Newsletters'
p1043
I1
sS'Challenge'
p1044
I2
sS'Look'
p1045
I2
sS'reach'
p1046
I1
sS'Inside'
p1047
I2
sS'apartment'
p1048
I1
sS'MICHAEL'
p1049
I2
sS'Up'
p1050
I1
sS'Daily'
p1051
I2
sS'Times'
p1052
I23
sS'Place'
p1053
I1
sS'Essure'
p1054
I1
sS'Rock'
p1055
I1
sS'company\xe2\x80\x99s'
p1056
I1
sS'2orusf3sf8sf14sf16forf5flflfnf0return'
p1057
I1
sS'security'
p1058
I1
sS'Bracey\xe2\x80\x99s'
p1059
I1
sS'August'
p1060
I1
sS'Square'
p1061
I1
sS'View'
p1062
I1
sS'world'
p1063
I1
sS'Caption'
p1064
I2
sS'Ages'
p1065
I1
sS'Chief'
p1066
I2
sS'US'
p1067
I6
sS'Trade'
p1068
I4
sS'Protest'
p1069
I3
sS'Paper'
p1070
I2
sS'Americans'
p1071
I1
sS'that\xe2\x80\x99s'
p1072
I1
sS'UK'
p1073
I1
sS'Hosted'
p1074
I1
sS'Images'
p1075
I1
sS'efforts'
p1076
I1
sS'Best'
p1077
I2
sS'Common'
p1078
I1
sS'Information'
p1079
I2
sS'Bags'
p1080
I1
sS'Articles'
p1081
I1
sS'Heads'
p1082
I3
sS'No'
p1083
I2
sS'communication'
p1084
I1
sS'Make'
p1085
I1
sS'Alerts'
p1086
I1
sS'Scotland'
p1087
I2
sS'etnytimescom'
p1088
I1
sS'Unhappy'
p1089
I1
sS'Insider'
p1090
I5
sS'Gaga'
p1091
I1
sS'inbox'
p1092
I1
sS'homeless'
p1093
I1
sS'elementary'
p1094
I1
sS'End'
p1095
I2
sS'Education'
p1096
I4
sS'federal'
p1097
I1
sS'Meeting'
p1098
I1
sS'Store'
p1099
I1
sS'Week'
p1100
I1
sS'Driven'
p1101
I2
sS'Stagnation'
p1102
I1
sS'Used'
p1103
I2
sS'ISIS'
p1104
I4
sS'Most'
p1105
I3
sS'NYTDAbrainitHOMEComingUp2147483648control12147483648comingup1HOMENewsEvent23865470567full1429496729control1HOMEElectionPrediction3865470567on1429496729control1HOMEgeoTrending1460288881Control11417339208Header11417339207NoHeader1ECSampleTest2147483648variantA02147483648variantB0ECDigiAbandonmentTest2147483648control12147483648sendAbandonmentEmail1'
p1106
I1
sS'Mosul\xe2\x80\x99s'
p1107
I2
sS'cheesesteak'
p1108
I1
sS'Brooklyn'
p1109
I1
sS'Finds'
p1110
I2
sS'NY'
p1111
I2
sS'fought'
p1112
I1
sS'Illegal'
p1113
I1
sS'User'
p1114
I1
sS'Listening'
p1115
I2
sS'heritage'
p1116
I1
sS'var'
p1117
I4
sS'slowly'
p1118
I1
sS'November'
p1119
I1
sS'LIPTON'
p1120
I1
sS'BlueCollar'
p1121
I1
sS'function'
p1122
I1
sS'Ideas'
p1123
I1
sS'\xe2\x80\x9cThank'
p1124
I1
sS'Sculptures'
p1125
I1
sS'Star'
p1126
I1
sS'Rhetoric'
p1127
I1
sS'Science'
p1128
I3
sS'heal'
p1129
I1
sS'J'
p1130
I1
sS'Except'
p1131
I1
sS'Deals'
p1132
I1
sS'Emailed'
p1133
I1
sS'unequal'
p1134
I1
sS'aide'
p1135
I1
sS'Guide'
p1136
I3
sS'raising'
p1137
I1
sS'Seeing'
p1138
I1
sS'Fired'
p1139
I1
sS'Jeff'
p1140
I2
sS'Wall'
p1141
I1
sS'Todays'
p1142
I3
sS'TRANSITION'
p1143
I1
sS'Public'
p1144
I2
sS'Alive'
p1145
I2
sS'Culture'
p1146
I1
sS'Say'
p1147
I3
sS'Fires'
p1148
I1
sS'Vow'
p1149
I1
sS'limit'
p1150
I2
sS'Identity'
p1151
I2
sS'Man\xe2\x80\x99s'
p1152
I1
sS'reviewed'
p1153
I1
sS'Close'
p1154
I2
sS'Counts'
p1155
I1
sS'Hints'
p1156
I1
sS'Crisis'
p1157
I1
sS'Boat'
p1158
I1
sS'\xc2\xbb'
p1159
I4
sS'Delivered'
p1160
I1
sS'Judges'
p1161
I1
sS'humanitarian'
p1162
I1
sS'culinary'
p1163
I1
sS'Bullish'
p1164
I1
sS'Writer'
p1165
I5
sS'superrich'
p1166
I1
sS'How'
p1167
I6
sS'Lets'
p1168
I1
sS'home'
p1169
I1
sS'Billionaires'
p1170
I2
sS'education'
p1171
I1
sS'Real'
p1172
I4
sS'High'
p1173
I1
sS'Italian'
p1174
I1
sS'Turning'
p1175
I1
sS'Barrier'
p1176
I1
sS'TV'
p1177
I1
sS'950'
p1178
I1
sS'Million'
p1179
I1
sS'offensive'
p1180
I1
sS'Carefree'
p1181
I1
sS'956'
p1182
I1
sS'Delivery'
p1183
I1
sS'Islamic'
p1184
I1
sS'Industry'
p1185
I1
sS'Student'
p1186
I1
sS'My'
p1187
I1
sS'William'
p1188
I2
sS'Lady'
p1189
I1
sS'Pages'
p1190
I1
sS'Man'
p1191
I2
sS'poor'
p1192
I1
sS'Climate'
p1193
I2
sS'Like'
p1194
I2
sS'Come'
p1195
I1
sS'students'
p1196
I1
sS'AM'
p1197
I6
sS'outlets'
p1198
I1
sS'Hubble'
p1199
I1
sS'Carries'
p1200
I1
sS'Future'
p1201
I1
sS'undercut'
p1202
I1
sS'previous'
p1203
I1
sS'St'
p1204
I1
sS'Catalan'
p1205
I1
sS'Alec'
p1206
I1
sS'While'
p1207
I1
sS'Coach'
p1208
I1
sS'\xe2\x80\x94'
p1209
I4
sS'Estate'
p1210
I4
sS'Fellow'
p1211
I1
sS'Win'
p1212
I2
sS'nbspComments'
p1213
I6
sS'Site'
p1214
I11
sS'daily'
p1215
I1
sS'An'
p1216
I1
sS'Brain'
p1217
I1
sS'Likely'
p1218
I1
sS'Trilobites'
p1219
I1
sS'At'
p1220
I4
sS'time'
p1221
I6
sS'lives'
p1222
I1
sS'Weddings'
p1223
I1
sS'EMILY'
p1224
I1
s.